
10-Car_CAM_uart_PC.elf:     file format elf32-littleriscv
10-Car_CAM_uart_PC.elf
architecture: riscv:rv32, flags 0x00000112:
EXEC_P, HAS_SYMS, D_PAGED
start address 0x00000000

Program Header:
    LOAD off    0x00001000 vaddr 0x00000000 paddr 0x00000000 align 2**12
         filesz 0x000057a4 memsz 0x000057a4 flags r-x
    LOAD off    0x00007000 vaddr 0x20000000 paddr 0x000057a4 align 2**12
         filesz 0x00000130 memsz 0x00005ae0 flags rw-
    LOAD off    0x00007800 vaddr 0x20007800 paddr 0x20007800 align 2**12
         filesz 0x00000000 memsz 0x00000800 flags rw-

Sections:
Idx Name          Size      VMA       LMA       File off  Algn
  0 .init         00000038  00000000  00000000  00001000  2**1
                  CONTENTS, ALLOC, LOAD, READONLY, CODE
  1 .vector       000001c8  00000038  00000038  00001038  2**1
                  CONTENTS, ALLOC, LOAD, READONLY, CODE
  2 .text         000055a4  00000200  00000200  00001200  2**2
                  CONTENTS, ALLOC, LOAD, READONLY, CODE
  3 .fini         00000000  000057a4  000057a4  00007130  2**0
                  CONTENTS, ALLOC, LOAD, CODE
  4 .dalign       00000000  20000000  20000000  00007130  2**0
                  CONTENTS
  5 .dlalign      00000000  000057a4  000057a4  00007130  2**0
                  CONTENTS
  6 .data         00000130  20000000  000057a4  00007000  2**2
                  CONTENTS, ALLOC, LOAD, DATA
  7 .bss          000059b0  20000130  000058d4  00007130  2**2
                  ALLOC
  8 .stack        00000800  20007800  20007800  00007800  2**0
                  ALLOC
  9 .debug_info   0001f6ef  00000000  00000000  00007130  2**0
                  CONTENTS, READONLY, DEBUGGING
 10 .debug_abbrev 000052b6  00000000  00000000  0002681f  2**0
                  CONTENTS, READONLY, DEBUGGING
 11 .debug_aranges 00000ef0  00000000  00000000  0002bad8  2**3
                  CONTENTS, READONLY, DEBUGGING
 12 .debug_ranges 00000df0  00000000  00000000  0002c9c8  2**3
                  CONTENTS, READONLY, DEBUGGING
 13 .debug_line   00016acb  00000000  00000000  0002d7b8  2**0
                  CONTENTS, READONLY, DEBUGGING
 14 .debug_str    00005edc  00000000  00000000  00044283  2**0
                  CONTENTS, READONLY, DEBUGGING
 15 .comment      00000033  00000000  00000000  0004a15f  2**0
                  CONTENTS, READONLY
 16 .debug_frame  00002e14  00000000  00000000  0004a194  2**2
                  CONTENTS, READONLY, DEBUGGING
 17 .debug_loc    00008c6d  00000000  00000000  0004cfa8  2**0
                  CONTENTS, READONLY, DEBUGGING
 18 .stab         000000b4  00000000  00000000  00055c18  2**2
                  CONTENTS, READONLY, DEBUGGING
 19 .stabstr      00000183  00000000  00000000  00055ccc  2**0
                  CONTENTS, READONLY, DEBUGGING
SYMBOL TABLE:
00000000 l    d  .init	00000000 .init
00000038 l    d  .vector	00000000 .vector
00000200 l    d  .text	00000000 .text
000057a4 l    d  .fini	00000000 .fini
20000000 l    d  .dalign	00000000 .dalign
000057a4 l    d  .dlalign	00000000 .dlalign
20000000 l    d  .data	00000000 .data
20000130 l    d  .bss	00000000 .bss
20007800 l    d  .stack	00000000 .stack
00000000 l    d  .debug_info	00000000 .debug_info
00000000 l    d  .debug_abbrev	00000000 .debug_abbrev
00000000 l    d  .debug_aranges	00000000 .debug_aranges
00000000 l    d  .debug_ranges	00000000 .debug_ranges
00000000 l    d  .debug_line	00000000 .debug_line
00000000 l    d  .debug_str	00000000 .debug_str
00000000 l    d  .comment	00000000 .comment
00000000 l    d  .debug_frame	00000000 .debug_frame
00000000 l    d  .debug_loc	00000000 .debug_loc
00000000 l    d  .stab	00000000 .stab
00000000 l    d  .stabstr	00000000 .stabstr
00000000 l    df *ABS*	00000000 ./CH32V30x/CH32V30x_p/Startup/startup_ch32v30x.o
00000038 l       .vector	00000000 _vector_base
00000000 l    df *ABS*	00000000 isr.c
00000000 l    df *ABS*	00000000 main.c
00000000 l    df *ABS*	00000000 HF_Double_DC_Motor.c
00000000 l    df *ABS*	00000000 HF_IPS114.c
000007e6 l     F .text	0000003a ips114_write_index
00000820 l     F .text	00000106 ips114_set_region
20000100 l     O .data	00000002 ips114_bgcolor
20000104 l     O .data	00000004 ips114_display_dir
20000108 l     O .data	00000002 ips114_pencolor
2000010a l     O .data	00000001 ips114_x_max
2000010b l     O .data	00000001 ips114_y_max
00000000 l    df *ABS*	00000000 HF_MT9V03X.c
00000d16 l     F .text	000000b0 mt9v03x_get_config_dvp.constprop.0
00004ecc l     O .text	00000011 __func__.6292
20000134 l     O .bss	00000003 receive_dvp
20000137 l     O .bss	00000001 receive_num_dvp
20000138 l     O .bss	00000001 uart_receive_flag_dvp
00000000 l    df *ABS*	00000000 HF_WS2812b.c
00000000 l    df *ABS*	00000000 board.c
00000000 l    df *ABS*	00000000 delay.c
00000000 l    df *ABS*	00000000 hf_adc.c
00000000 l    df *ABS*	00000000 hf_dvp.c
00000000 l    df *ABS*	00000000 hf_gpio.c
00000000 l    df *ABS*	00000000 hf_nvic.c
00000000 l    df *ABS*	00000000 hf_pwm.c
00000000 l    df *ABS*	00000000 hf_spi.c
00000000 l    df *ABS*	00000000 hf_tim.c
00000000 l    df *ABS*	00000000 hf_uart.c
00000000 l    df *ABS*	00000000 board_led.c
00000000 l    df *ABS*	00000000 car_init.c
00000000 l    df *ABS*	00000000 car_keys.c
00000000 l    df *ABS*	00000000 car_reed.c
00000000 l    df *ABS*	00000000 ch32v30x_adc.c
00000000 l    df *ABS*	00000000 ch32v30x_exti.c
00000000 l    df *ABS*	00000000 ch32v30x_gpio.c
00000000 l    df *ABS*	00000000 ch32v30x_misc.c
00000000 l    df *ABS*	00000000 ch32v30x_rcc.c
2000004c l     O .data	00000010 APBAHBPrescTable
2000010c l     O .data	00000004 ADCPrescTable
00000000 l    df *ABS*	00000000 ch32v30x_spi.c
00000000 l    df *ABS*	00000000 ch32v30x_tim.c
00000000 l    df *ABS*	00000000 ch32v30x_usart.c
00000000 l    df *ABS*	00000000 ch32v30x_usbotg_device.c
00000000 l    df *ABS*	00000000 system_ch32v30x.c
00000000 l    df *ABS*	00000000 assert.c
00000000 l    df *ABS*	00000000 fprintf.c
00000000 l    df *ABS*	00000000 memcpy.c
00000000 l    df *ABS*	00000000 nano-vfprintf.c
00003c34 l     F .text	00000028 __sfputc_r
00000000 l    df *ABS*	00000000 nano-vfprintf_i.c
00000000 l    df *ABS*	00000000 printf.c
00000000 l    df *ABS*	00000000 wbuf.c
00000000 l    df *ABS*	00000000 wsetup.c
00000000 l    df *ABS*	00000000 abort.c
00000000 l    df *ABS*	00000000 fflush.c
00000000 l    df *ABS*	00000000 findfp.c
000046b0 l     F .text	0000006a std
00000000 l    df *ABS*	00000000 fwalk.c
00000000 l    df *ABS*	00000000 makebuf.c
00000000 l    df *ABS*	00000000 memchr.c
00000000 l    df *ABS*	00000000 nano-mallocr.c
00000000 l    df *ABS*	00000000 nano-mallocr.c
00000000 l    df *ABS*	00000000 sbrkr.c
00000000 l    df *ABS*	00000000 signal.c
00000000 l    df *ABS*	00000000 signalr.c
00000000 l    df *ABS*	00000000 stdio.c
00000000 l    df *ABS*	00000000 writer.c
00000000 l    df *ABS*	00000000 closer.c
00000000 l    df *ABS*	00000000 fstatr.c
00000000 l    df *ABS*	00000000 isattyr.c
00000000 l    df *ABS*	00000000 lseekr.c
00000000 l    df *ABS*	00000000 mlock.c
00000000 l    df *ABS*	00000000 readr.c
00000000 l    df *ABS*	00000000 close.c
00000000 l    df *ABS*	00000000 fstat.c
00000000 l    df *ABS*	00000000 getpid.c
00000000 l    df *ABS*	00000000 isatty.c
00000000 l    df *ABS*	00000000 kill.c
00000000 l    df *ABS*	00000000 lseek.c
00000000 l    df *ABS*	00000000 read.c
00000000 l    df *ABS*	00000000 sbrk.c
20000150 l     O .bss	00000004 heap_end.1518
00000000 l    df *ABS*	00000000 _exit.c
00000000 l    df *ABS*	00000000 hf_common_font.c
00000000 l    df *ABS*	00000000 impure.c
200000a0 l     O .data	00000060 impure_data
00000000 l    df *ABS*	00000000 common.c
00000000 l    df *ABS*	00000000 reent.c
00000444 g     F .text	00000016 EXTI2_IRQHandler
0000265c  w      .text	00000000 TIM8_TRG_COM_IRQHandler
0000265e  w      .text	00000000 TIM8_CC_IRQHandler
20000146 g     O .bss	00000001 USBHD_Dev_SleepStatus
00004d88 g     F .text	00000030 _isatty_r
20000154 g     O .bss	00005820 mt9v03x_image_dvp
00004e44 g     F .text	00000010 _getpid
00003274 g     F .text	00000016 DevEP1_IN_Deal
00004db8 g     F .text	00000034 _lseek_r
000003cc g     F .text	0000001e UART8_IRQHandler
00001fbc g     F .text	000000d4 uart_interrupt_init
00004c02 g     F .text	00000032 _kill_r
000042f4 g     F .text	00000040 printf
20000900 g       .data	00000000 __global_pointer$
00002638  w      .text	00000000 TIM1_CC_IRQHandler
00004cb4 g     F .text	00000036 __sseek
0000476a g     F .text	0000006c __sinit
00004334 g     F .text	000000c0 __swbuf_r
000002ac g     F .text	00000002 HardFault_Handler
00004724 g     F .text	00000046 __sfmoreglue
00004dee g     F .text	00000002 __malloc_unlock
00002552 g     F .text	00000092 key_init
0000062c g     F .text	0000001a TIM6_IRQHandler
0000301e g     F .text	00000012 TIM_OC1PreloadConfig
000025fe  w      .text	00000000 SysTick_Handler
00002804 g     F .text	0000000a ADC_StartCalibration
00002990 g     F .text	000000b8 NVIC_Init
00002604  w      .text	00000000 PVD_IRQHandler
2000013c g     O .bss	00000004 sys_clk
00002664  w      .text	00000000 SDIO_IRQHandler
00002696  w      .text	00000000 TIM9_BRK_IRQHandler
000026aa  w      .text	00000000 DMA2_Channel8_IRQHandler
000002a8 g     F .text	00000004 NMI_Handler
00001eca g     F .text	000000a4 timbase_init
00000784 g     F .text	00000062 motor_init
00002684  w      .text	00000000 CAN2_RX1_IRQHandler
0000045a g     F .text	00000016 EXTI3_IRQHandler
0000268c  w      .text	00000000 USBHS_IRQHandler
00002600  w      .text	00000000 SW_handler
0000320e g     F .text	0000000c USART_GetFlagStatus
000026ac  w      .text	00000000 DMA2_Channel9_IRQHandler
00004d56 g     F .text	00000032 _fstat_r
00005568 g     O .text	00000020 TIMERN
0000564c g     O .text	00000014 MyReportDescHD
000026a4  w      .text	00000000 TIM10_CC_IRQHandler
20005adc g     O .bss	00000004 errno
2000005c g     O .data	00000043 TAB_USB_FS_OSC_DESC
20000130 g       .bss	00000000 _sbss
00000800 g       *ABS*	00000000 __stack_size
20005978 g     O .bss	00000001 DevConfig
00001598 g     F .text	0000001a interrupt_disable
00003008 g     F .text	00000016 TIM_CtrlPWMOutputs
00003b7e g     F .text	000000b6 memcpy
20000120 g     O .data	00000008 uart_irq
000027e2 g     F .text	00000010 ADC_Cmd
2000597c g     O .bss	00000080 EP2_DatabufHD
00001558 g     F .text	00000026 gpio_bit_output
0000471a g     F .text	0000000a _cleanup_r
0000290a g     F .text	00000086 GPIO_PinRemapConfig
0000040a g     F .text	00000014 EXTI0_IRQHandler
00002644  w      .text	00000000 I2C2_EV_IRQHandler
000026a2  w      .text	00000000 TIM10_TRG_COM_IRQHandler
200059fc g     O .bss	00000002 SetupReqLen
00002fec g     F .text	0000001c TIM_Cmd
0000305c g     F .text	0000001a TIM_OC4PreloadConfig
00005660 g     O .text	00000016 MySerNumInfoHD
20000118 g     O .data	00000004 SystemCoreClock
00001f8e g     F .text	0000002e uart_putbuff
000030a0 g     F .text	0000000e TIM_ClearFlag
000024be g     F .text	0000002c board_led_init
00004b94 g     F .text	00000062 _raise_r
00004e34 g     F .text	00000010 _fstat
00001d7c g     F .text	00000100 spi_init
00003b1e g     F .text	0000003a __assert_func
00000038 g       .init	00000000 _einit
000030ca g     F .text	0000000e TIM_ClearITPendingBit
00005678 g     O .text	0000000a MyUSBQUADescHD
00000a2c g     F .text	00000042 ips114_show_string
00002b86 g     F .text	0000001e RCC_APB2PeriphClockCmd
00000e48 g     F .text	00000182 mt9v03x_init_dvp
00004f58 g     O .text	000005f0 tft_ascii
00002686  w      .text	00000000 CAN2_SCE_IRQHandler
00002626  w      .text	00000000 ADC1_2_IRQHandler
00004c34 g     F .text	00000002 _getpid_r
0000283e g     F .text	000000c2 GPIO_Init
00002a48 g     F .text	00000012 RCC_ADCCLKConfig
000025fc  w      .text	00000000 Break_Point_Handler
200059fe g     O .bss	00000001 SetupReqCode
000015c2 g     F .text	0000001e nvic_init
20000140 g     O .bss	00000004 NVIC_Priority_Group
00002648  w      .text	00000000 SPI1_IRQHandler
000027f2 g     F .text	0000000a ADC_ResetCalibration
000031b2 g     F .text	0000001c USART_Cmd
00004b64 g     F .text	00000030 _sbrk_r
00002606  w      .text	00000000 TAMPER_IRQHandler
000011aa g     F .text	000000c6 adc_gpio_init
00002e84 g     F .text	000000ca TIM_OC3Init
00004df0 g     F .text	00000034 _read_r
0000325e g     F .text	00000016 USART_ClearITPendingBit
00002682  w      .text	00000000 CAN2_RX0_IRQHandler
0000066c g     F .text	00000026 TIM8_UP_IRQHandler
0000555c g     O .text	0000000c SPIN
00002ba4 g     F .text	0000001e RCC_APB1PeriphClockCmd
000025f8  w      .text	00000000 Ecall_M_Mode_Handler
00004e54 g     F .text	00000010 _isatty
0000113c g     F .text	00000038 Delay_Us
2000012c g     O .data	00000004 _global_impure_ptr
00003094 g     F .text	0000000c TIM_GetFlagStatus
00002674  w      .text	00000000 DMA2_Channel2_IRQHandler
00002b68 g     F .text	0000001e RCC_AHBPeriphClockCmd
0000261e  w      .text	00000000 DMA1_Channel4_IRQHandler
000024ea g     F .text	00000068 car_init
00004500 g     F .text	0000000e abort
00004e94 g     F .text	00000024 _sbrk
00000dc6 g     F .text	00000060 mt9v03x_uart_callback_dvp
00000692 g     F .text	00000026 TIM9_UP_IRQHandler
00000302 g     F .text	0000002a USART3_IRQHandler
00002834 g     F .text	0000000a EXTI_ClearITPendingBit
20000024 g     O .data	00000028 mt9v03x_set_confing_buffer_dvp
00002608  w      .text	00000000 RTC_IRQHandler
0000280e g     F .text	00000008 ADC_GetCalibrationStatus
20005ae0 g       .bss	00000000 _ebss
0000321a g     F .text	00000044 USART_GetITStatus
00002624  w      .text	00000000 DMA1_Channel7_IRQHandler
00002d18 g     F .text	000000a0 TIM_OC1Init
0000304a g     F .text	00000012 TIM_OC3PreloadConfig
000027fc g     F .text	00000008 ADC_GetResetCalibrationStatus
00005640 g     O .text	0000000c MyProdInfoHD
0000262c  w      .text	00000000 CAN1_RX1_IRQHandler
00000a6e g     F .text	000002a8 ips114_init
0000113a g     F .text	00000002 Delay_Init
000003ea g     F .text	00000020 DVP_IRQHandler
00000356 g     F .text	00000022 UART5_IRQHandler
00000926 g     F .text	00000044 ips114_clear
20005a00 g     O .bss	00000004 pDescr
20000128 g     O .data	00000004 MyLangDescrHD
00005588 g     O .text	00000020 UARTN
00001a80 g     F .text	000001c2 pwm_init
00003b58 g     F .text	00000026 fprintf
000005e0 g     F .text	00000026 TIM4_IRQHandler
00002900 g     F .text	0000000a GPIO_WriteBit
00002672  w      .text	00000000 DMA2_Channel1_IRQHandler
00005744 g     O .text	00000020 __sf_fake_stderr
20005ae0 g       .bss	00000000 end
20000110 g     O .data	00000007 LineCoding
00002640  w      .text	00000000 I2C1_EV_IRQHandler
000030ae g     F .text	0000001c TIM_GetITStatus
00001e98 g     F .text	00000032 spi_write_16bit
00002a5a g     F .text	0000010e RCC_GetClocksFreq
00002622  w      .text	00000000 DMA1_Channel6_IRQHandler
00003c5c g     F .text	00000042 __sfputs_r
000022f4 g     F .text	000001ca uart_init
0000032c g     F .text	0000002a UART4_IRQHandler
00002678  w      .text	00000000 DMA2_Channel4_IRQHandler
000049d8 g     F .text	0000001a memchr
000030d8 g     F .text	000000da USART_Init
000049f2 g     F .text	000000a4 _free_r
000005ba g     F .text	00000026 TIM3_IRQHandler
0000260c  w      .text	00000000 RCC_IRQHandler
000020b6 g     F .text	0000023e uart_gpio_init
00002636  w      .text	00000000 TIM1_TRG_COM_IRQHandler
00002618  w      .text	00000000 DMA1_Channel1_IRQHandler
00000000 g       .init	00000000 _start
000026a8  w      .text	00000000 DMA2_Channel7_IRQHandler
00004e74 g     F .text	00000010 _lseek
00003030 g     F .text	0000001a TIM_OC2PreloadConfig
000004f8 g     F .text	00000082 EXTI15_10_IRQHandler
00005548 g     O .text	00000014 GPION
00002090 g     F .text	00000026 uart_query
00002db8 g     F .text	000000cc TIM_OC2Init
000031ce g     F .text	00000036 USART_ITConfig
20005a04 g     O .bss	00000004 pEP2_RAM_Addr
00003076 g     F .text	00000018 TIM_OC4PolarityConfig
00000646 g     F .text	00000026 TIM7_IRQHandler
00004d26 g     F .text	00000030 _close_r
00002680  w      .text	00000000 CAN2_TX_IRQHandler
20000000 g       .dalign	00000000 _data_vma
000025e4 g     F .text	00000010 reed_init
00000606 g     F .text	00000026 TIM5_IRQHandler
00001072 g     F .text	00000040 ws2812b_init
00002f4e g     F .text	0000009e TIM_OC4Init
000032c6 g     F .text	00000026 DevEP2_OUT_Deal
000043f4 g     F .text	0000010c __swsetup_r
0000130a g     F .text	000000c4 dvp_gpio_init
00000486 g     F .text	00000072 EXTI9_5_IRQHandler
000047d6 g     F .text	000000a0 __sfp
000010b2 g     F .text	00000038 board_init
00004c36 g     F .text	00000030 __sread
0000267e  w      .text	00000000 ETH_WKUP_IRQHandler
000032a0 g     F .text	00000026 DevEP1_OUT_Deal
00004dec g     F .text	00000002 __malloc_lock
0000464a g     F .text	00000066 _fflush_r
00002816 g     F .text	0000001e EXTI_GetITStatus
20005a08 g     O .bss	00000004 pEP0_RAM_Addr
20000130 g     O .bss	00000001 mt9v03x_finish_flag_dvp
0000264a  w      .text	00000000 SPI2_IRQHandler
00005764 g     O .text	00000020 __sf_fake_stdin
0000561c g     O .text	00000012 MyDevDescrHD
00000200 g     F .text	000000a8 memset
00000740 g     F .text	00000044 main
0000269e  w      .text	00000000 TIM10_BRK_IRQHandler
20005a0c g     O .bss	00000080 EP1_DatabufHD
0000269c  w      .text	00000000 TIM9_CC_IRQHandler
00004cea g     F .text	00000006 __sclose
0000267a  w      .text	00000000 DMA2_Channel5_IRQHandler
00000fca g     F .text	000000a8 ws2812b_write
20000117 g     O .data	00000001 USBHD_Dev_Speed
00004a96 g     F .text	000000ce _malloc_r
00005630 g     O .text	0000000e MyManuInfoHD
00002620  w      .text	00000000 DMA1_Channel5_IRQHandler
0000308e g     F .text	00000006 TIM_SetCounter
00000470 g     F .text	00000016 EXTI4_IRQHandler
00001174 g     F .text	00000036 Delay_Ms
0000262a  w      .text	00000000 USB_LP_CAN1_RX0_IRQHandler
00000e26 g     F .text	00000022 mt9v03x_handler_dvp
00002c3a g     F .text	0000001e SPI_Cmd
20005974 g     O .bss	00000004 camera_buffer_addr
000039fc g     F .text	00000122 SystemInit
00002660  w      .text	00000000 RNG_IRQHandler
000015b2 g     F .text	0000000c interrupt_set_priority
00000998 g     F .text	00000094 ips114_show_char
000042f4 g     F .text	00000040 iprintf
20005a8c g     O .bss	00000008 EP0_DatabufHD
00002628  w      .text	00000000 USB_HP_CAN1_TX_IRQHandler
00000000 g       .init	00000000 _sinit
0000328a g     F .text	00000016 DevEP2_IN_Deal
00004cf0 g     F .text	00000036 _write_r
0000261c  w      .text	00000000 DMA1_Channel3_IRQHandler
20005a94 g     O .bss	00000040 Receive_Uart_Buf
00002662  w      .text	00000000 FSMC_IRQHandler
0000267c  w      .text	00000000 ETH_IRQHandler
00003f3c g     F .text	0000010c _printf_common
2000011c g     O .data	00000004 _impure_ptr
0000057a g     F .text	00000026 TIM1_UP_IRQHandler
00001270 g     F .text	0000009a adc_init
0000450e g     F .text	0000013c __sflush_r
00002602  w      .text	00000000 WWDG_IRQHandler
0000268a  w      .text	00000000 USBHSWakeup_IRQHandler
000026b0  w      .text	00000000 DMA2_Channel11_IRQHandler
000025fa  w      .text	00000000 Ecall_U_Mode_Handler
000026a6  w      .text	00000000 DMA2_Channel6_IRQHandler
000005a0 g     F .text	0000001a TIM2_IRQHandler
20008000 g       .stack	00000000 _eusrstack
0000096a g     F .text	0000002e ips114_set_dir
000015e0 g     F .text	00000030 pwm_duty
00002744 g     F .text	00000046 ADC_DeInit
00001e7c g     F .text	0000001c spi_write_8bit
000055d8 g     O .text	00000043 MyCfgDescrHD
00002632  w      .text	00000000 TIM1_BRK_IRQHandler
000048e2 g     F .text	00000058 __swhatbuf_r
0000278a g     F .text	00000058 ADC_Init
00003204 g     F .text	0000000a USART_SendData
000026ae  w      .text	00000000 DMA2_Channel10_IRQHandler
0000041e g     F .text	00000026 EXTI1_IRQHandler
000010ea g     F .text	00000050 _write
20000130 g       .data	00000000 _edata
000006d2 g     F .text	0000006e Daimxa_Pc_Display188x120
20000144 g     O .bss	00000002 USBHD_Dev_SetupReqLen
00002c58 g     F .text	000000c0 TIM_TimeBaseInit
00002654  w      .text	00000000 RTCAlarm_IRQHandler
000057a4 g       .dlalign	00000000 _data_lma
000006b8 g     F .text	0000001a TIM10_UP_IRQHandler
0000269a  w      .text	00000000 TIM9_TRG_COM_IRQHandler
000003a2 g     F .text	0000002a UART7_IRQHandler
000002d8 g     F .text	0000002a USART2_IRQHandler
00000378 g     F .text	0000002a UART6_IRQHandler
00004c66 g     F .text	0000004e __swrite
00003b58 g     F .text	00000026 fiprintf
00003c9e g     F .text	0000029e _vfiprintf_r
00004876 g     F .text	0000006c _fwalk_reent
000015be g     F .text	00000002 interrupt_global_enable
00004e64 g     F .text	00000010 _kill
00002646  w      .text	00000000 I2C2_ER_IRQHandler
0000261a  w      .text	00000000 DMA1_Channel2_IRQHandler
00005784 g     O .text	00000020 __sf_fake_stdout
00002658  w      .text	00000000 TIM8_BRK_IRQHandler
00004e84 g     F .text	00000010 _read
000026b2  w      .text	00000000 handle_reset
0000262e  w      .text	00000000 CAN1_SCE_IRQHandler
0000260a  w      .text	00000000 FLASH_IRQHandler
00001610 g     F .text	00000470 pwm_gpio_init
00004eb8 g     F .text	00000002 _exit
000002ae g     F .text	0000002a USART1_IRQHandler
0000493a g     F .text	0000009e __smakebuf_r
0000157e g     F .text	0000001a interrupt_enable
000032ec g     F .text	00000710 OTG_FS_IRQHandler
00004048 g     F .text	000002ac _printf_i
00002668  w      .text	00000000 SPI3_IRQHandler
20005ad4 g     O .bss	00000001 UsbConfig
2000014c g     O .bss	00000004 __malloc_sbrk_start
00002bc2 g     F .text	0000001e RCC_APB2PeriphResetCmd
00002642  w      .text	00000000 I2C1_ER_IRQHandler
00002be0 g     F .text	0000005a SPI_Init
00001c42 g     F .text	0000013a spi_gpio_init
0000147c g     F .text	000000dc gpio_init
20000148 g     O .bss	00000004 __malloc_free_list
00003c9e g     F .text	0000029e _vfprintf_r
20000000 g     O .data	00000024 mt9v03x_get_confing_buffer_dvp
20005ad8 g     O .bss	00000004 pEP1_RAM_Addr
000013ce g     F .text	000000ae dvp_camera_init
00001f6e g     F .text	00000020 uart_putchar
00002656  w      .text	00000000 USBWakeUp_IRQHandler
00004e24 g     F .text	00000010 _close
00004bf6 g     F .text	0000000c raise
00002676  w      .text	00000000 DMA2_Channel3_IRQHandler
000015c0 g     F .text	00000002 interrupt_global_disable



Disassembly of section .init:

00000000 <_sinit>:
   0:	6b20206f          	j	26b2 <handle_reset>
   4:	00000013          	nop
   8:	00000013          	nop
   c:	00000013          	nop
  10:	00000013          	nop
  14:	00000013          	nop
  18:	00000013          	nop
  1c:	00000013          	nop
  20:	00000013          	nop
  24:	00000013          	nop
  28:	00000013          	nop
  2c:	00000013          	nop
  30:	00000013          	nop
  34:	00100073          	ebreak

Disassembly of section .vector:

00000038 <_vector_base>:
	...
  40:	02a8                	addi	a0,sp,328
  42:	0000                	unimp
  44:	02ac                	addi	a1,sp,328
  46:	0000                	unimp
  48:	0000                	unimp
  4a:	0000                	unimp
  4c:	25f8                	fld	fa4,200(a1)
	...
  56:	0000                	unimp
  58:	25fa                	fld	fa1,408(sp)
  5a:	0000                	unimp
  5c:	25fc                	fld	fa5,200(a1)
	...
  66:	0000                	unimp
  68:	25fe                	fld	fa1,472(sp)
  6a:	0000                	unimp
  6c:	0000                	unimp
  6e:	0000                	unimp
  70:	2600                	fld	fs0,8(a2)
  72:	0000                	unimp
  74:	0000                	unimp
  76:	0000                	unimp
  78:	2602                	fld	fa2,0(sp)
  7a:	0000                	unimp
  7c:	2604                	fld	fs1,8(a2)
  7e:	0000                	unimp
  80:	2606                	fld	fa2,64(sp)
  82:	0000                	unimp
  84:	2608                	fld	fa0,8(a2)
  86:	0000                	unimp
  88:	260a                	fld	fa2,128(sp)
  8a:	0000                	unimp
  8c:	260c                	fld	fa1,8(a2)
  8e:	0000                	unimp
  90:	040a                	slli	s0,s0,0x2
  92:	0000                	unimp
  94:	041e                	slli	s0,s0,0x7
  96:	0000                	unimp
  98:	0444                	addi	s1,sp,516
  9a:	0000                	unimp
  9c:	045a                	slli	s0,s0,0x16
  9e:	0000                	unimp
  a0:	0470                	addi	a2,sp,524
  a2:	0000                	unimp
  a4:	2618                	fld	fa4,8(a2)
  a6:	0000                	unimp
  a8:	261a                	fld	fa2,384(sp)
  aa:	0000                	unimp
  ac:	261c                	fld	fa5,8(a2)
  ae:	0000                	unimp
  b0:	261e                	fld	fa2,448(sp)
  b2:	0000                	unimp
  b4:	2620                	fld	fs0,72(a2)
  b6:	0000                	unimp
  b8:	2622                	fld	fa2,8(sp)
  ba:	0000                	unimp
  bc:	2624                	fld	fs1,72(a2)
  be:	0000                	unimp
  c0:	2626                	fld	fa2,72(sp)
  c2:	0000                	unimp
  c4:	2628                	fld	fa0,72(a2)
  c6:	0000                	unimp
  c8:	262a                	fld	fa2,136(sp)
  ca:	0000                	unimp
  cc:	262c                	fld	fa1,72(a2)
  ce:	0000                	unimp
  d0:	262e                	fld	fa2,200(sp)
  d2:	0000                	unimp
  d4:	0486                	slli	s1,s1,0x1
  d6:	0000                	unimp
  d8:	2632                	fld	fa2,264(sp)
  da:	0000                	unimp
  dc:	057a                	slli	a0,a0,0x1e
  de:	0000                	unimp
  e0:	2636                	fld	fa2,328(sp)
  e2:	0000                	unimp
  e4:	2638                	fld	fa4,72(a2)
  e6:	0000                	unimp
  e8:	05a0                	addi	s0,sp,712
  ea:	0000                	unimp
  ec:	05ba                	slli	a1,a1,0xe
  ee:	0000                	unimp
  f0:	05e0                	addi	s0,sp,716
  f2:	0000                	unimp
  f4:	2640                	fld	fs0,136(a2)
  f6:	0000                	unimp
  f8:	2642                	fld	fa2,16(sp)
  fa:	0000                	unimp
  fc:	2644                	fld	fs1,136(a2)
  fe:	0000                	unimp
 100:	2646                	fld	fa2,80(sp)
 102:	0000                	unimp
 104:	2648                	fld	fa0,136(a2)
 106:	0000                	unimp
 108:	264a                	fld	fa2,144(sp)
 10a:	0000                	unimp
 10c:	02ae                	slli	t0,t0,0xb
 10e:	0000                	unimp
 110:	02d8                	addi	a4,sp,324
 112:	0000                	unimp
 114:	0302                	c.slli64	t1
 116:	0000                	unimp
 118:	04f8                	addi	a4,sp,588
 11a:	0000                	unimp
 11c:	2654                	fld	fa3,136(a2)
 11e:	0000                	unimp
 120:	2656                	fld	fa2,336(sp)
 122:	0000                	unimp
 124:	2658                	fld	fa4,136(a2)
 126:	0000                	unimp
 128:	066c                	addi	a1,sp,780
 12a:	0000                	unimp
 12c:	265c                	fld	fa5,136(a2)
 12e:	0000                	unimp
 130:	265e                	fld	fa2,464(sp)
 132:	0000                	unimp
 134:	2660                	fld	fs0,200(a2)
 136:	0000                	unimp
 138:	2662                	fld	fa2,24(sp)
 13a:	0000                	unimp
 13c:	2664                	fld	fs1,200(a2)
 13e:	0000                	unimp
 140:	0606                	slli	a2,a2,0x1
 142:	0000                	unimp
 144:	2668                	fld	fa0,200(a2)
 146:	0000                	unimp
 148:	032c                	addi	a1,sp,392
 14a:	0000                	unimp
 14c:	0356                	slli	t1,t1,0x15
 14e:	0000                	unimp
 150:	062c                	addi	a1,sp,776
 152:	0000                	unimp
 154:	0646                	slli	a2,a2,0x11
 156:	0000                	unimp
 158:	2672                	fld	fa2,280(sp)
 15a:	0000                	unimp
 15c:	2674                	fld	fa3,200(a2)
 15e:	0000                	unimp
 160:	2676                	fld	fa2,344(sp)
 162:	0000                	unimp
 164:	2678                	fld	fa4,200(a2)
 166:	0000                	unimp
 168:	267a                	fld	fa2,408(sp)
 16a:	0000                	unimp
 16c:	267c                	fld	fa5,200(a2)
 16e:	0000                	unimp
 170:	267e                	fld	fa2,472(sp)
 172:	0000                	unimp
 174:	2680                	fld	fs0,8(a3)
 176:	0000                	unimp
 178:	2682                	fld	fa3,0(sp)
 17a:	0000                	unimp
 17c:	2684                	fld	fs1,8(a3)
 17e:	0000                	unimp
 180:	2686                	fld	fa3,64(sp)
 182:	0000                	unimp
 184:	32ec                	fld	fa1,224(a3)
 186:	0000                	unimp
 188:	268a                	fld	fa3,128(sp)
 18a:	0000                	unimp
 18c:	268c                	fld	fa1,8(a3)
 18e:	0000                	unimp
 190:	03ea                	slli	t2,t2,0x1a
 192:	0000                	unimp
 194:	0378                	addi	a4,sp,396
 196:	0000                	unimp
 198:	03a2                	slli	t2,t2,0x8
 19a:	0000                	unimp
 19c:	03cc                	addi	a1,sp,452
 19e:	0000                	unimp
 1a0:	2696                	fld	fa3,320(sp)
 1a2:	0000                	unimp
 1a4:	0692                	slli	a3,a3,0x4
 1a6:	0000                	unimp
 1a8:	269a                	fld	fa3,384(sp)
 1aa:	0000                	unimp
 1ac:	269c                	fld	fa5,8(a3)
 1ae:	0000                	unimp
 1b0:	269e                	fld	fa3,448(sp)
 1b2:	0000                	unimp
 1b4:	06b8                	addi	a4,sp,840
 1b6:	0000                	unimp
 1b8:	26a2                	fld	fa3,8(sp)
 1ba:	0000                	unimp
 1bc:	26a4                	fld	fs1,72(a3)
 1be:	0000                	unimp
 1c0:	26a6                	fld	fa3,72(sp)
 1c2:	0000                	unimp
 1c4:	26a8                	fld	fa0,72(a3)
 1c6:	0000                	unimp
 1c8:	26aa                	fld	fa3,136(sp)
 1ca:	0000                	unimp
 1cc:	26ac                	fld	fa1,72(a3)
 1ce:	0000                	unimp
 1d0:	26ae                	fld	fa3,200(sp)
 1d2:	0000                	unimp
 1d4:	26b0                	fld	fa2,72(a3)
	...

Disassembly of section .text:

00000200 <memset>:
     200:	433d                	li	t1,15
     202:	872a                	mv	a4,a0
     204:	02c37363          	bgeu	t1,a2,22a <memset+0x2a>
     208:	00f77793          	andi	a5,a4,15
     20c:	efbd                	bnez	a5,28a <memset+0x8a>
     20e:	e5ad                	bnez	a1,278 <memset+0x78>
     210:	ff067693          	andi	a3,a2,-16
     214:	8a3d                	andi	a2,a2,15
     216:	96ba                	add	a3,a3,a4
     218:	c30c                	sw	a1,0(a4)
     21a:	c34c                	sw	a1,4(a4)
     21c:	c70c                	sw	a1,8(a4)
     21e:	c74c                	sw	a1,12(a4)
     220:	0741                	addi	a4,a4,16
     222:	fed76be3          	bltu	a4,a3,218 <memset+0x18>
     226:	e211                	bnez	a2,22a <memset+0x2a>
     228:	8082                	ret
     22a:	40c306b3          	sub	a3,t1,a2
     22e:	068a                	slli	a3,a3,0x2
     230:	00000297          	auipc	t0,0x0
     234:	9696                	add	a3,a3,t0
     236:	00a68067          	jr	10(a3)
     23a:	00b70723          	sb	a1,14(a4)
     23e:	00b706a3          	sb	a1,13(a4)
     242:	00b70623          	sb	a1,12(a4)
     246:	00b705a3          	sb	a1,11(a4)
     24a:	00b70523          	sb	a1,10(a4)
     24e:	00b704a3          	sb	a1,9(a4)
     252:	00b70423          	sb	a1,8(a4)
     256:	00b703a3          	sb	a1,7(a4)
     25a:	00b70323          	sb	a1,6(a4)
     25e:	00b702a3          	sb	a1,5(a4)
     262:	00b70223          	sb	a1,4(a4)
     266:	00b701a3          	sb	a1,3(a4)
     26a:	00b70123          	sb	a1,2(a4)
     26e:	00b700a3          	sb	a1,1(a4)
     272:	00b70023          	sb	a1,0(a4)
     276:	8082                	ret
     278:	0ff5f593          	andi	a1,a1,255
     27c:	00859693          	slli	a3,a1,0x8
     280:	8dd5                	or	a1,a1,a3
     282:	01059693          	slli	a3,a1,0x10
     286:	8dd5                	or	a1,a1,a3
     288:	b761                	j	210 <memset+0x10>
     28a:	00279693          	slli	a3,a5,0x2
     28e:	00000297          	auipc	t0,0x0
     292:	9696                	add	a3,a3,t0
     294:	8286                	mv	t0,ra
     296:	fa8680e7          	jalr	-88(a3)
     29a:	8096                	mv	ra,t0
     29c:	17c1                	addi	a5,a5,-16
     29e:	8f1d                	sub	a4,a4,a5
     2a0:	963e                	add	a2,a2,a5
     2a2:	f8c374e3          	bgeu	t1,a2,22a <memset+0x2a>
     2a6:	b7a5                	j	20e <memset+0xe>

000002a8 <NMI_Handler>:
     2a8:	30200073          	mret

000002ac <HardFault_Handler>:
     2ac:	a001                	j	2ac <HardFault_Handler>

000002ae <USART1_IRQHandler>:
     2ae:	1141                	addi	sp,sp,-16
     2b0:	c622                	sw	s0,12(sp)
     2b2:	40014437          	lui	s0,0x40014
     2b6:	52500593          	li	a1,1317
     2ba:	80040513          	addi	a0,s0,-2048 # 40013800 <_eusrstack+0x2000b800>
     2be:	75d020ef          	jal	ra,321a <USART_GetITStatus>
     2c2:	c519                	beqz	a0,2d0 <USART1_IRQHandler+0x22>
     2c4:	52500593          	li	a1,1317
     2c8:	80040513          	addi	a0,s0,-2048
     2cc:	793020ef          	jal	ra,325e <USART_ClearITPendingBit>
     2d0:	4432                	lw	s0,12(sp)
     2d2:	0141                	addi	sp,sp,16
     2d4:	30200073          	mret

000002d8 <USART2_IRQHandler>:
     2d8:	1141                	addi	sp,sp,-16
     2da:	c622                	sw	s0,12(sp)
     2dc:	40004437          	lui	s0,0x40004
     2e0:	52500593          	li	a1,1317
     2e4:	40040513          	addi	a0,s0,1024 # 40004400 <_eusrstack+0x1fffc400>
     2e8:	733020ef          	jal	ra,321a <USART_GetITStatus>
     2ec:	c519                	beqz	a0,2fa <USART2_IRQHandler+0x22>
     2ee:	52500593          	li	a1,1317
     2f2:	40040513          	addi	a0,s0,1024
     2f6:	769020ef          	jal	ra,325e <USART_ClearITPendingBit>
     2fa:	4432                	lw	s0,12(sp)
     2fc:	0141                	addi	sp,sp,16
     2fe:	30200073          	mret

00000302 <USART3_IRQHandler>:
     302:	1141                	addi	sp,sp,-16
     304:	c622                	sw	s0,12(sp)
     306:	40005437          	lui	s0,0x40005
     30a:	52500593          	li	a1,1317
     30e:	80040513          	addi	a0,s0,-2048 # 40004800 <_eusrstack+0x1fffc800>
     312:	709020ef          	jal	ra,321a <USART_GetITStatus>
     316:	c519                	beqz	a0,324 <USART3_IRQHandler+0x22>
     318:	52500593          	li	a1,1317
     31c:	80040513          	addi	a0,s0,-2048
     320:	73f020ef          	jal	ra,325e <USART_ClearITPendingBit>
     324:	4432                	lw	s0,12(sp)
     326:	0141                	addi	sp,sp,16
     328:	30200073          	mret

0000032c <UART4_IRQHandler>:
     32c:	1141                	addi	sp,sp,-16
     32e:	c622                	sw	s0,12(sp)
     330:	40005437          	lui	s0,0x40005
     334:	52500593          	li	a1,1317
     338:	c0040513          	addi	a0,s0,-1024 # 40004c00 <_eusrstack+0x1fffcc00>
     33c:	6df020ef          	jal	ra,321a <USART_GetITStatus>
     340:	c519                	beqz	a0,34e <UART4_IRQHandler+0x22>
     342:	52500593          	li	a1,1317
     346:	c0040513          	addi	a0,s0,-1024
     34a:	715020ef          	jal	ra,325e <USART_ClearITPendingBit>
     34e:	4432                	lw	s0,12(sp)
     350:	0141                	addi	sp,sp,16
     352:	30200073          	mret

00000356 <UART5_IRQHandler>:
     356:	52500593          	li	a1,1317
     35a:	40005537          	lui	a0,0x40005
     35e:	6bd020ef          	jal	ra,321a <USART_GetITStatus>
     362:	c909                	beqz	a0,374 <UART5_IRQHandler+0x1e>
     364:	263000ef          	jal	ra,dc6 <mt9v03x_uart_callback_dvp>
     368:	52500593          	li	a1,1317
     36c:	40005537          	lui	a0,0x40005
     370:	6ef020ef          	jal	ra,325e <USART_ClearITPendingBit>
     374:	30200073          	mret

00000378 <UART6_IRQHandler>:
     378:	1141                	addi	sp,sp,-16
     37a:	c622                	sw	s0,12(sp)
     37c:	40002437          	lui	s0,0x40002
     380:	52500593          	li	a1,1317
     384:	80040513          	addi	a0,s0,-2048 # 40001800 <_eusrstack+0x1fff9800>
     388:	693020ef          	jal	ra,321a <USART_GetITStatus>
     38c:	c519                	beqz	a0,39a <UART6_IRQHandler+0x22>
     38e:	52500593          	li	a1,1317
     392:	80040513          	addi	a0,s0,-2048
     396:	6c9020ef          	jal	ra,325e <USART_ClearITPendingBit>
     39a:	4432                	lw	s0,12(sp)
     39c:	0141                	addi	sp,sp,16
     39e:	30200073          	mret

000003a2 <UART7_IRQHandler>:
     3a2:	1141                	addi	sp,sp,-16
     3a4:	c622                	sw	s0,12(sp)
     3a6:	40002437          	lui	s0,0x40002
     3aa:	52500593          	li	a1,1317
     3ae:	c0040513          	addi	a0,s0,-1024 # 40001c00 <_eusrstack+0x1fff9c00>
     3b2:	669020ef          	jal	ra,321a <USART_GetITStatus>
     3b6:	c519                	beqz	a0,3c4 <UART7_IRQHandler+0x22>
     3b8:	52500593          	li	a1,1317
     3bc:	c0040513          	addi	a0,s0,-1024
     3c0:	69f020ef          	jal	ra,325e <USART_ClearITPendingBit>
     3c4:	4432                	lw	s0,12(sp)
     3c6:	0141                	addi	sp,sp,16
     3c8:	30200073          	mret

000003cc <UART8_IRQHandler>:
     3cc:	52500593          	li	a1,1317
     3d0:	40002537          	lui	a0,0x40002
     3d4:	647020ef          	jal	ra,321a <USART_GetITStatus>
     3d8:	c519                	beqz	a0,3e6 <UART8_IRQHandler+0x1a>
     3da:	52500593          	li	a1,1317
     3de:	40002537          	lui	a0,0x40002
     3e2:	67d020ef          	jal	ra,325e <USART_ClearITPendingBit>
     3e6:	30200073          	mret

000003ea <DVP_IRQHandler>:
     3ea:	500507b7          	lui	a5,0x50050
     3ee:	0107c703          	lbu	a4,16(a5) # 50050010 <_eusrstack+0x30048010>
     3f2:	8b11                	andi	a4,a4,4
     3f4:	cb09                	beqz	a4,406 <DVP_IRQHandler+0x1c>
     3f6:	0107c703          	lbu	a4,16(a5)
     3fa:	0fb77713          	andi	a4,a4,251
     3fe:	00e78823          	sb	a4,16(a5)
     402:	225000ef          	jal	ra,e26 <mt9v03x_handler_dvp>
     406:	30200073          	mret

0000040a <EXTI0_IRQHandler>:
     40a:	4505                	li	a0,1
     40c:	40a020ef          	jal	ra,2816 <EXTI_GetITStatus>
     410:	4785                	li	a5,1
     412:	00f51463          	bne	a0,a5,41a <EXTI0_IRQHandler+0x10>
     416:	41e020ef          	jal	ra,2834 <EXTI_ClearITPendingBit>
     41a:	30200073          	mret

0000041e <EXTI1_IRQHandler>:
     41e:	4509                	li	a0,2
     420:	3f6020ef          	jal	ra,2816 <EXTI_GetITStatus>
     424:	4785                	li	a5,1
     426:	00f51d63          	bne	a0,a5,440 <EXTI1_IRQHandler+0x22>
     42a:	4509                	li	a0,2
     42c:	408020ef          	jal	ra,2834 <EXTI_ClearITPendingBit>
     430:	08200513          	li	a0,130
     434:	4581                	li	a1,0
     436:	122010ef          	jal	ra,1558 <gpio_bit_output>
     43a:	4551                	li	a0,20
     43c:	539000ef          	jal	ra,1174 <Delay_Ms>
     440:	30200073          	mret

00000444 <EXTI2_IRQHandler>:
     444:	4511                	li	a0,4
     446:	3d0020ef          	jal	ra,2816 <EXTI_GetITStatus>
     44a:	4785                	li	a5,1
     44c:	00f51563          	bne	a0,a5,456 <EXTI2_IRQHandler+0x12>
     450:	4511                	li	a0,4
     452:	3e2020ef          	jal	ra,2834 <EXTI_ClearITPendingBit>
     456:	30200073          	mret

0000045a <EXTI3_IRQHandler>:
     45a:	4521                	li	a0,8
     45c:	3ba020ef          	jal	ra,2816 <EXTI_GetITStatus>
     460:	4785                	li	a5,1
     462:	00f51563          	bne	a0,a5,46c <EXTI3_IRQHandler+0x12>
     466:	4521                	li	a0,8
     468:	3cc020ef          	jal	ra,2834 <EXTI_ClearITPendingBit>
     46c:	30200073          	mret

00000470 <EXTI4_IRQHandler>:
     470:	4541                	li	a0,16
     472:	3a4020ef          	jal	ra,2816 <EXTI_GetITStatus>
     476:	4785                	li	a5,1
     478:	00f51563          	bne	a0,a5,482 <EXTI4_IRQHandler+0x12>
     47c:	4541                	li	a0,16
     47e:	3b6020ef          	jal	ra,2834 <EXTI_ClearITPendingBit>
     482:	30200073          	mret

00000486 <EXTI9_5_IRQHandler>:
     486:	02000513          	li	a0,32
     48a:	38c020ef          	jal	ra,2816 <EXTI_GetITStatus>
     48e:	4785                	li	a5,1
     490:	00f51663          	bne	a0,a5,49c <EXTI9_5_IRQHandler+0x16>
     494:	02000513          	li	a0,32
     498:	39c020ef          	jal	ra,2834 <EXTI_ClearITPendingBit>
     49c:	04000513          	li	a0,64
     4a0:	376020ef          	jal	ra,2816 <EXTI_GetITStatus>
     4a4:	4785                	li	a5,1
     4a6:	00f51663          	bne	a0,a5,4b2 <EXTI9_5_IRQHandler+0x2c>
     4aa:	04000513          	li	a0,64
     4ae:	386020ef          	jal	ra,2834 <EXTI_ClearITPendingBit>
     4b2:	08000513          	li	a0,128
     4b6:	360020ef          	jal	ra,2816 <EXTI_GetITStatus>
     4ba:	4785                	li	a5,1
     4bc:	00f51663          	bne	a0,a5,4c8 <EXTI9_5_IRQHandler+0x42>
     4c0:	08000513          	li	a0,128
     4c4:	370020ef          	jal	ra,2834 <EXTI_ClearITPendingBit>
     4c8:	10000513          	li	a0,256
     4cc:	34a020ef          	jal	ra,2816 <EXTI_GetITStatus>
     4d0:	4785                	li	a5,1
     4d2:	00f51663          	bne	a0,a5,4de <EXTI9_5_IRQHandler+0x58>
     4d6:	10000513          	li	a0,256
     4da:	35a020ef          	jal	ra,2834 <EXTI_ClearITPendingBit>
     4de:	20000513          	li	a0,512
     4e2:	334020ef          	jal	ra,2816 <EXTI_GetITStatus>
     4e6:	4785                	li	a5,1
     4e8:	00f51663          	bne	a0,a5,4f4 <EXTI9_5_IRQHandler+0x6e>
     4ec:	20000513          	li	a0,512
     4f0:	344020ef          	jal	ra,2834 <EXTI_ClearITPendingBit>
     4f4:	30200073          	mret

000004f8 <EXTI15_10_IRQHandler>:
     4f8:	1141                	addi	sp,sp,-16
     4fa:	40000513          	li	a0,1024
     4fe:	c622                	sw	s0,12(sp)
     500:	316020ef          	jal	ra,2816 <EXTI_GetITStatus>
     504:	4785                	li	a5,1
     506:	00f51663          	bne	a0,a5,512 <EXTI15_10_IRQHandler+0x1a>
     50a:	40000513          	li	a0,1024
     50e:	326020ef          	jal	ra,2834 <EXTI_ClearITPendingBit>
     512:	6405                	lui	s0,0x1
     514:	80040513          	addi	a0,s0,-2048 # 800 <__stack_size>
     518:	2fe020ef          	jal	ra,2816 <EXTI_GetITStatus>
     51c:	4785                	li	a5,1
     51e:	00f51663          	bne	a0,a5,52a <EXTI15_10_IRQHandler+0x32>
     522:	80040513          	addi	a0,s0,-2048
     526:	30e020ef          	jal	ra,2834 <EXTI_ClearITPendingBit>
     52a:	6505                	lui	a0,0x1
     52c:	2ea020ef          	jal	ra,2816 <EXTI_GetITStatus>
     530:	4785                	li	a5,1
     532:	00f51563          	bne	a0,a5,53c <EXTI15_10_IRQHandler+0x44>
     536:	6505                	lui	a0,0x1
     538:	2fc020ef          	jal	ra,2834 <EXTI_ClearITPendingBit>
     53c:	6509                	lui	a0,0x2
     53e:	2d8020ef          	jal	ra,2816 <EXTI_GetITStatus>
     542:	4785                	li	a5,1
     544:	00f51563          	bne	a0,a5,54e <EXTI15_10_IRQHandler+0x56>
     548:	6509                	lui	a0,0x2
     54a:	2ea020ef          	jal	ra,2834 <EXTI_ClearITPendingBit>
     54e:	6511                	lui	a0,0x4
     550:	2c6020ef          	jal	ra,2816 <EXTI_GetITStatus>
     554:	4785                	li	a5,1
     556:	00f51563          	bne	a0,a5,560 <EXTI15_10_IRQHandler+0x68>
     55a:	6511                	lui	a0,0x4
     55c:	2d8020ef          	jal	ra,2834 <EXTI_ClearITPendingBit>
     560:	6521                	lui	a0,0x8
     562:	2b4020ef          	jal	ra,2816 <EXTI_GetITStatus>
     566:	4785                	li	a5,1
     568:	00f51563          	bne	a0,a5,572 <EXTI15_10_IRQHandler+0x7a>
     56c:	6521                	lui	a0,0x8
     56e:	2c6020ef          	jal	ra,2834 <EXTI_ClearITPendingBit>
     572:	4432                	lw	s0,12(sp)
     574:	0141                	addi	sp,sp,16
     576:	30200073          	mret

0000057a <TIM1_UP_IRQHandler>:
     57a:	1141                	addi	sp,sp,-16
     57c:	c622                	sw	s0,12(sp)
     57e:	40013437          	lui	s0,0x40013
     582:	4585                	li	a1,1
     584:	c0040513          	addi	a0,s0,-1024 # 40012c00 <_eusrstack+0x2000ac00>
     588:	327020ef          	jal	ra,30ae <TIM_GetITStatus>
     58c:	c511                	beqz	a0,598 <TIM1_UP_IRQHandler+0x1e>
     58e:	4585                	li	a1,1
     590:	c0040513          	addi	a0,s0,-1024
     594:	337020ef          	jal	ra,30ca <TIM_ClearITPendingBit>
     598:	4432                	lw	s0,12(sp)
     59a:	0141                	addi	sp,sp,16
     59c:	30200073          	mret

000005a0 <TIM2_IRQHandler>:
     5a0:	4585                	li	a1,1
     5a2:	40000537          	lui	a0,0x40000
     5a6:	309020ef          	jal	ra,30ae <TIM_GetITStatus>
     5aa:	c511                	beqz	a0,5b6 <TIM2_IRQHandler+0x16>
     5ac:	4585                	li	a1,1
     5ae:	40000537          	lui	a0,0x40000
     5b2:	319020ef          	jal	ra,30ca <TIM_ClearITPendingBit>
     5b6:	30200073          	mret

000005ba <TIM3_IRQHandler>:
     5ba:	1141                	addi	sp,sp,-16
     5bc:	c622                	sw	s0,12(sp)
     5be:	40000437          	lui	s0,0x40000
     5c2:	4585                	li	a1,1
     5c4:	40040513          	addi	a0,s0,1024 # 40000400 <_eusrstack+0x1fff8400>
     5c8:	2e7020ef          	jal	ra,30ae <TIM_GetITStatus>
     5cc:	c511                	beqz	a0,5d8 <TIM3_IRQHandler+0x1e>
     5ce:	4585                	li	a1,1
     5d0:	40040513          	addi	a0,s0,1024
     5d4:	2f7020ef          	jal	ra,30ca <TIM_ClearITPendingBit>
     5d8:	4432                	lw	s0,12(sp)
     5da:	0141                	addi	sp,sp,16
     5dc:	30200073          	mret

000005e0 <TIM4_IRQHandler>:
     5e0:	1141                	addi	sp,sp,-16
     5e2:	c622                	sw	s0,12(sp)
     5e4:	40001437          	lui	s0,0x40001
     5e8:	4585                	li	a1,1
     5ea:	80040513          	addi	a0,s0,-2048 # 40000800 <_eusrstack+0x1fff8800>
     5ee:	2c1020ef          	jal	ra,30ae <TIM_GetITStatus>
     5f2:	c511                	beqz	a0,5fe <TIM4_IRQHandler+0x1e>
     5f4:	4585                	li	a1,1
     5f6:	80040513          	addi	a0,s0,-2048
     5fa:	2d1020ef          	jal	ra,30ca <TIM_ClearITPendingBit>
     5fe:	4432                	lw	s0,12(sp)
     600:	0141                	addi	sp,sp,16
     602:	30200073          	mret

00000606 <TIM5_IRQHandler>:
     606:	1141                	addi	sp,sp,-16
     608:	c622                	sw	s0,12(sp)
     60a:	40001437          	lui	s0,0x40001
     60e:	4585                	li	a1,1
     610:	c0040513          	addi	a0,s0,-1024 # 40000c00 <_eusrstack+0x1fff8c00>
     614:	29b020ef          	jal	ra,30ae <TIM_GetITStatus>
     618:	c511                	beqz	a0,624 <TIM5_IRQHandler+0x1e>
     61a:	4585                	li	a1,1
     61c:	c0040513          	addi	a0,s0,-1024
     620:	2ab020ef          	jal	ra,30ca <TIM_ClearITPendingBit>
     624:	4432                	lw	s0,12(sp)
     626:	0141                	addi	sp,sp,16
     628:	30200073          	mret

0000062c <TIM6_IRQHandler>:
     62c:	4585                	li	a1,1
     62e:	40001537          	lui	a0,0x40001
     632:	27d020ef          	jal	ra,30ae <TIM_GetITStatus>
     636:	c511                	beqz	a0,642 <TIM6_IRQHandler+0x16>
     638:	4585                	li	a1,1
     63a:	40001537          	lui	a0,0x40001
     63e:	28d020ef          	jal	ra,30ca <TIM_ClearITPendingBit>
     642:	30200073          	mret

00000646 <TIM7_IRQHandler>:
     646:	1141                	addi	sp,sp,-16
     648:	c622                	sw	s0,12(sp)
     64a:	40001437          	lui	s0,0x40001
     64e:	4585                	li	a1,1
     650:	40040513          	addi	a0,s0,1024 # 40001400 <_eusrstack+0x1fff9400>
     654:	25b020ef          	jal	ra,30ae <TIM_GetITStatus>
     658:	c511                	beqz	a0,664 <TIM7_IRQHandler+0x1e>
     65a:	4585                	li	a1,1
     65c:	40040513          	addi	a0,s0,1024
     660:	26b020ef          	jal	ra,30ca <TIM_ClearITPendingBit>
     664:	4432                	lw	s0,12(sp)
     666:	0141                	addi	sp,sp,16
     668:	30200073          	mret

0000066c <TIM8_UP_IRQHandler>:
     66c:	1141                	addi	sp,sp,-16
     66e:	c622                	sw	s0,12(sp)
     670:	40013437          	lui	s0,0x40013
     674:	4585                	li	a1,1
     676:	40040513          	addi	a0,s0,1024 # 40013400 <_eusrstack+0x2000b400>
     67a:	235020ef          	jal	ra,30ae <TIM_GetITStatus>
     67e:	c511                	beqz	a0,68a <TIM8_UP_IRQHandler+0x1e>
     680:	4585                	li	a1,1
     682:	40040513          	addi	a0,s0,1024
     686:	245020ef          	jal	ra,30ca <TIM_ClearITPendingBit>
     68a:	4432                	lw	s0,12(sp)
     68c:	0141                	addi	sp,sp,16
     68e:	30200073          	mret

00000692 <TIM9_UP_IRQHandler>:
     692:	1141                	addi	sp,sp,-16
     694:	c622                	sw	s0,12(sp)
     696:	40015437          	lui	s0,0x40015
     69a:	4585                	li	a1,1
     69c:	c0040513          	addi	a0,s0,-1024 # 40014c00 <_eusrstack+0x2000cc00>
     6a0:	20f020ef          	jal	ra,30ae <TIM_GetITStatus>
     6a4:	c511                	beqz	a0,6b0 <TIM9_UP_IRQHandler+0x1e>
     6a6:	4585                	li	a1,1
     6a8:	c0040513          	addi	a0,s0,-1024
     6ac:	21f020ef          	jal	ra,30ca <TIM_ClearITPendingBit>
     6b0:	4432                	lw	s0,12(sp)
     6b2:	0141                	addi	sp,sp,16
     6b4:	30200073          	mret

000006b8 <TIM10_UP_IRQHandler>:
     6b8:	4585                	li	a1,1
     6ba:	40015537          	lui	a0,0x40015
     6be:	1f1020ef          	jal	ra,30ae <TIM_GetITStatus>
     6c2:	c511                	beqz	a0,6ce <TIM10_UP_IRQHandler+0x16>
     6c4:	4585                	li	a1,1
     6c6:	40015537          	lui	a0,0x40015
     6ca:	201020ef          	jal	ra,30ca <TIM_ClearITPendingBit>
     6ce:	30200073          	mret

000006d2 <Daimxa_Pc_Display188x120>:
     6d2:	1101                	addi	sp,sp,-32
     6d4:	4581                	li	a1,0
     6d6:	4509                	li	a0,2
     6d8:	ce06                	sw	ra,28(sp)
     6da:	cc22                	sw	s0,24(sp)
     6dc:	ca26                	sw	s1,20(sp)
     6de:	c64e                	sw	s3,12(sp)
     6e0:	c84a                	sw	s2,16(sp)
     6e2:	08d010ef          	jal	ra,1f6e <uart_putchar>
     6e6:	0ff00593          	li	a1,255
     6ea:	4509                	li	a0,2
     6ec:	083010ef          	jal	ra,1f6e <uart_putchar>
     6f0:	4585                	li	a1,1
     6f2:	4509                	li	a0,2
     6f4:	07b010ef          	jal	ra,1f6e <uart_putchar>
     6f8:	20000437          	lui	s0,0x20000
     6fc:	6499                	lui	s1,0x6
     6fe:	4585                	li	a1,1
     700:	4509                	li	a0,2
     702:	15440413          	addi	s0,s0,340 # 20000154 <mt9v03x_image_dvp>
     706:	82048493          	addi	s1,s1,-2016 # 5820 <_data_lma+0x7c>
     70a:	065010ef          	jal	ra,1f6e <uart_putchar>
     70e:	94a2                	add	s1,s1,s0
     710:	0bc00993          	li	s3,188
     714:	4901                	li	s2,0
     716:	012407b3          	add	a5,s0,s2
     71a:	0007c583          	lbu	a1,0(a5)
     71e:	4509                	li	a0,2
     720:	0905                	addi	s2,s2,1
     722:	04d010ef          	jal	ra,1f6e <uart_putchar>
     726:	ff3918e3          	bne	s2,s3,716 <Daimxa_Pc_Display188x120+0x44>
     72a:	0bc40413          	addi	s0,s0,188
     72e:	fe9413e3          	bne	s0,s1,714 <Daimxa_Pc_Display188x120+0x42>
     732:	40f2                	lw	ra,28(sp)
     734:	4462                	lw	s0,24(sp)
     736:	44d2                	lw	s1,20(sp)
     738:	4942                	lw	s2,16(sp)
     73a:	49b2                	lw	s3,12(sp)
     73c:	6105                	addi	sp,sp,32
     73e:	8082                	ret

00000740 <main>:
     740:	1141                	addi	sp,sp,-16
     742:	c606                	sw	ra,12(sp)
     744:	c422                	sw	s0,8(sp)
     746:	5a5010ef          	jal	ra,24ea <car_init>
     74a:	2615                	jal	a6e <ips114_init>
     74c:	00005637          	lui	a2,0x5
     750:	ebc60613          	addi	a2,a2,-324 # 4ebc <_exit+0x4>
     754:	4581                	li	a1,0
     756:	4501                	li	a0,0
     758:	2cd1                	jal	a2c <ips114_show_string>
     75a:	00005637          	lui	a2,0x5
     75e:	ec460613          	addi	a2,a2,-316 # 4ec4 <_exit+0xc>
     762:	45d1                	li	a1,20
     764:	4501                	li	a0,0
     766:	24d9                	jal	a2c <ips114_show_string>
     768:	6e0000ef          	jal	ra,e48 <mt9v03x_init_dvp>
     76c:	06400513          	li	a0,100
     770:	205000ef          	jal	ra,1174 <Delay_Ms>
     774:	8301c783          	lbu	a5,-2000(gp) # 20000130 <_edata>
     778:	e391                	bnez	a5,77c <main+0x3c>
     77a:	a001                	j	77a <main+0x3a>
     77c:	82018823          	sb	zero,-2000(gp) # 20000130 <_edata>
     780:	3f89                	jal	6d2 <Daimxa_Pc_Display188x120>
     782:	bfcd                	j	774 <main+0x34>

00000784 <motor_init>:
     784:	1141                	addi	sp,sp,-16
     786:	c606                	sw	ra,12(sp)
     788:	c422                	sw	s0,8(sp)
     78a:	e515                	bnez	a0,7b6 <motor_init+0x32>
     78c:	0002c437          	lui	s0,0x2c
     790:	46a1                	li	a3,8
     792:	4601                	li	a2,0
     794:	f2040593          	addi	a1,s0,-224 # 2bf20 <_data_lma+0x2677c>
     798:	20300513          	li	a0,515
     79c:	2e4010ef          	jal	ra,1a80 <pwm_init>
     7a0:	46a1                	li	a3,8
     7a2:	4601                	li	a2,0
     7a4:	f2040593          	addi	a1,s0,-224
     7a8:	20200513          	li	a0,514
     7ac:	4422                	lw	s0,8(sp)
     7ae:	40b2                	lw	ra,12(sp)
     7b0:	0141                	addi	sp,sp,16
     7b2:	2ce0106f          	j	1a80 <pwm_init>
     7b6:	4785                	li	a5,1
     7b8:	02f51363          	bne	a0,a5,7de <motor_init+0x5a>
     7bc:	0002c437          	lui	s0,0x2c
     7c0:	4681                	li	a3,0
     7c2:	4601                	li	a2,0
     7c4:	f2040593          	addi	a1,s0,-224 # 2bf20 <_data_lma+0x2677c>
     7c8:	10100513          	li	a0,257
     7cc:	2b4010ef          	jal	ra,1a80 <pwm_init>
     7d0:	4681                	li	a3,0
     7d2:	4601                	li	a2,0
     7d4:	f2040593          	addi	a1,s0,-224
     7d8:	10000513          	li	a0,256
     7dc:	bfc1                	j	7ac <motor_init+0x28>
     7de:	40b2                	lw	ra,12(sp)
     7e0:	4422                	lw	s0,8(sp)
     7e2:	0141                	addi	sp,sp,16
     7e4:	8082                	ret

000007e6 <ips114_write_index>:
     7e6:	1141                	addi	sp,sp,-16
     7e8:	6795                	lui	a5,0x5
     7ea:	c422                	sw	s0,8(sp)
     7ec:	5547a403          	lw	s0,1364(a5) # 5554 <GPION+0xc>
     7f0:	c226                	sw	s1,4(sp)
     7f2:	c04a                	sw	s2,0(sp)
     7f4:	c606                	sw	ra,12(sp)
     7f6:	44c1                	li	s1,16
     7f8:	c804                	sw	s1,16(s0)
     7fa:	c844                	sw	s1,20(s0)
     7fc:	08000913          	li	s2,128
     800:	01242a23          	sw	s2,20(s0)
     804:	85aa                	mv	a1,a0
     806:	4505                	li	a0,1
     808:	674010ef          	jal	ra,1e7c <spi_write_8bit>
     80c:	01242823          	sw	s2,16(s0)
     810:	c804                	sw	s1,16(s0)
     812:	c844                	sw	s1,20(s0)
     814:	40b2                	lw	ra,12(sp)
     816:	4422                	lw	s0,8(sp)
     818:	4492                	lw	s1,4(sp)
     81a:	4902                	lw	s2,0(sp)
     81c:	0141                	addi	sp,sp,16
     81e:	8082                	ret

00000820 <ips114_set_region>:
     820:	8041a783          	lw	a5,-2044(gp) # 20000104 <ips114_display_dir>
     824:	1101                	addi	sp,sp,-32
     826:	cc22                	sw	s0,24(sp)
     828:	ca26                	sw	s1,20(sp)
     82a:	c84a                	sw	s2,16(sp)
     82c:	c64e                	sw	s3,12(sp)
     82e:	ce06                	sw	ra,28(sp)
     830:	89aa                	mv	s3,a0
     832:	84ae                	mv	s1,a1
     834:	8932                	mv	s2,a2
     836:	8436                	mv	s0,a3
     838:	efa1                	bnez	a5,890 <ips114_set_region+0x70>
     83a:	02a00513          	li	a0,42
     83e:	3765                	jal	7e6 <ips114_write_index>
     840:	03498593          	addi	a1,s3,52
     844:	05c2                	slli	a1,a1,0x10
     846:	81c1                	srli	a1,a1,0x10
     848:	4505                	li	a0,1
     84a:	64e010ef          	jal	ra,1e98 <spi_write_16bit>
     84e:	03490593          	addi	a1,s2,52
     852:	05c2                	slli	a1,a1,0x10
     854:	81c1                	srli	a1,a1,0x10
     856:	4505                	li	a0,1
     858:	640010ef          	jal	ra,1e98 <spi_write_16bit>
     85c:	02b00513          	li	a0,43
     860:	3759                	jal	7e6 <ips114_write_index>
     862:	02848593          	addi	a1,s1,40
     866:	05c2                	slli	a1,a1,0x10
     868:	81c1                	srli	a1,a1,0x10
     86a:	4505                	li	a0,1
     86c:	62c010ef          	jal	ra,1e98 <spi_write_16bit>
     870:	02840593          	addi	a1,s0,40
     874:	05c2                	slli	a1,a1,0x10
     876:	4505                	li	a0,1
     878:	81c1                	srli	a1,a1,0x10
     87a:	61e010ef          	jal	ra,1e98 <spi_write_16bit>
     87e:	4462                	lw	s0,24(sp)
     880:	40f2                	lw	ra,28(sp)
     882:	44d2                	lw	s1,20(sp)
     884:	4942                	lw	s2,16(sp)
     886:	49b2                	lw	s3,12(sp)
     888:	02c00513          	li	a0,44
     88c:	6105                	addi	sp,sp,32
     88e:	bfa1                	j	7e6 <ips114_write_index>
     890:	4705                	li	a4,1
     892:	00e79f63          	bne	a5,a4,8b0 <ips114_set_region+0x90>
     896:	02a00513          	li	a0,42
     89a:	37b1                	jal	7e6 <ips114_write_index>
     89c:	03598593          	addi	a1,s3,53
     8a0:	05c2                	slli	a1,a1,0x10
     8a2:	81c1                	srli	a1,a1,0x10
     8a4:	4505                	li	a0,1
     8a6:	5f2010ef          	jal	ra,1e98 <spi_write_16bit>
     8aa:	03590593          	addi	a1,s2,53
     8ae:	b755                	j	852 <ips114_set_region+0x32>
     8b0:	02850993          	addi	s3,a0,40 # 40015028 <_eusrstack+0x2000d028>
     8b4:	02860913          	addi	s2,a2,40
     8b8:	09c2                	slli	s3,s3,0x10
     8ba:	0942                	slli	s2,s2,0x10
     8bc:	4709                	li	a4,2
     8be:	0109d993          	srli	s3,s3,0x10
     8c2:	01095913          	srli	s2,s2,0x10
     8c6:	02a00513          	li	a0,42
     8ca:	02e79863          	bne	a5,a4,8fa <ips114_set_region+0xda>
     8ce:	3f21                	jal	7e6 <ips114_write_index>
     8d0:	85ce                	mv	a1,s3
     8d2:	4505                	li	a0,1
     8d4:	5c4010ef          	jal	ra,1e98 <spi_write_16bit>
     8d8:	85ca                	mv	a1,s2
     8da:	4505                	li	a0,1
     8dc:	5bc010ef          	jal	ra,1e98 <spi_write_16bit>
     8e0:	02b00513          	li	a0,43
     8e4:	3709                	jal	7e6 <ips114_write_index>
     8e6:	03548593          	addi	a1,s1,53
     8ea:	05c2                	slli	a1,a1,0x10
     8ec:	81c1                	srli	a1,a1,0x10
     8ee:	4505                	li	a0,1
     8f0:	5a8010ef          	jal	ra,1e98 <spi_write_16bit>
     8f4:	03540593          	addi	a1,s0,53
     8f8:	bfb5                	j	874 <ips114_set_region+0x54>
     8fa:	35f5                	jal	7e6 <ips114_write_index>
     8fc:	85ce                	mv	a1,s3
     8fe:	4505                	li	a0,1
     900:	598010ef          	jal	ra,1e98 <spi_write_16bit>
     904:	85ca                	mv	a1,s2
     906:	4505                	li	a0,1
     908:	590010ef          	jal	ra,1e98 <spi_write_16bit>
     90c:	02b00513          	li	a0,43
     910:	3dd9                	jal	7e6 <ips114_write_index>
     912:	03448593          	addi	a1,s1,52
     916:	05c2                	slli	a1,a1,0x10
     918:	81c1                	srli	a1,a1,0x10
     91a:	4505                	li	a0,1
     91c:	57c010ef          	jal	ra,1e98 <spi_write_16bit>
     920:	03440593          	addi	a1,s0,52
     924:	bf81                	j	874 <ips114_set_region+0x54>

00000926 <ips114_clear>:
     926:	80a1c603          	lbu	a2,-2038(gp) # 2000010a <ips114_x_max>
     92a:	80b1c683          	lbu	a3,-2037(gp) # 2000010b <ips114_y_max>
     92e:	1141                	addi	sp,sp,-16
     930:	c422                	sw	s0,8(sp)
     932:	02d60433          	mul	s0,a2,a3
     936:	16fd                	addi	a3,a3,-1
     938:	167d                	addi	a2,a2,-1
     93a:	06c2                	slli	a3,a3,0x10
     93c:	0642                	slli	a2,a2,0x10
     93e:	82c1                	srli	a3,a3,0x10
     940:	8241                	srli	a2,a2,0x10
     942:	4581                	li	a1,0
     944:	4501                	li	a0,0
     946:	c226                	sw	s1,4(sp)
     948:	c606                	sw	ra,12(sp)
     94a:	200004b7          	lui	s1,0x20000
     94e:	3dc9                	jal	820 <ips114_set_region>
     950:	e411                	bnez	s0,95c <ips114_clear+0x36>
     952:	40b2                	lw	ra,12(sp)
     954:	4422                	lw	s0,8(sp)
     956:	4492                	lw	s1,4(sp)
     958:	0141                	addi	sp,sp,16
     95a:	8082                	ret
     95c:	1004d583          	lhu	a1,256(s1) # 20000100 <ips114_bgcolor>
     960:	4505                	li	a0,1
     962:	147d                	addi	s0,s0,-1
     964:	534010ef          	jal	ra,1e98 <spi_write_16bit>
     968:	b7e5                	j	950 <ips114_clear+0x2a>

0000096a <ips114_set_dir>:
     96a:	80a1a223          	sw	a0,-2044(gp) # 20000104 <ips114_display_dir>
     96e:	4685                	li	a3,1
     970:	80a18713          	addi	a4,gp,-2038 # 2000010a <ips114_x_max>
     974:	80b18793          	addi	a5,gp,-2037 # 2000010b <ips114_y_max>
     978:	00a6ea63          	bltu	a3,a0,98c <ips114_set_dir+0x22>
     97c:	f8700693          	li	a3,-121
     980:	00d70023          	sb	a3,0(a4)
     984:	5741                	li	a4,-16
     986:	00e78023          	sb	a4,0(a5)
     98a:	8082                	ret
     98c:	56c1                	li	a3,-16
     98e:	00d70023          	sb	a3,0(a4)
     992:	f8700713          	li	a4,-121
     996:	bfc5                	j	986 <ips114_set_dir+0x1c>

00000998 <ips114_show_char>:
     998:	7179                	addi	sp,sp,-48
     99a:	ce4e                	sw	s3,28(sp)
     99c:	6795                	lui	a5,0x5
     99e:	00750993          	addi	s3,a0,7
     9a2:	0612                	slli	a2,a2,0x4
     9a4:	f5878793          	addi	a5,a5,-168 # 4f58 <tft_ascii>
     9a8:	09c2                	slli	s3,s3,0x10
     9aa:	d422                	sw	s0,40(sp)
     9ac:	d04a                	sw	s2,32(sp)
     9ae:	ca56                	sw	s5,20(sp)
     9b0:	c85a                	sw	s6,16(sp)
     9b2:	c65e                	sw	s7,12(sp)
     9b4:	c462                	sw	s8,8(sp)
     9b6:	c266                	sw	s9,4(sp)
     9b8:	d606                	sw	ra,44(sp)
     9ba:	d226                	sw	s1,36(sp)
     9bc:	cc52                	sw	s4,24(sp)
     9be:	8aaa                	mv	s5,a0
     9c0:	8bae                	mv	s7,a1
     9c2:	00f60433          	add	s0,a2,a5
     9c6:	4901                	li	s2,0
     9c8:	0109d993          	srli	s3,s3,0x10
     9cc:	20000c37          	lui	s8,0x20000
     9d0:	4b41                	li	s6,16
     9d2:	012b86b3          	add	a3,s7,s2
     9d6:	06c2                	slli	a3,a3,0x10
     9d8:	82c1                	srli	a3,a3,0x10
     9da:	864e                	mv	a2,s3
     9dc:	85b6                	mv	a1,a3
     9de:	8556                	mv	a0,s5
     9e0:	3581                	jal	820 <ips114_set_region>
     9e2:	e0044a03          	lbu	s4,-512(s0)
     9e6:	44a1                	li	s1,8
     9e8:	001a7793          	andi	a5,s4,1
     9ec:	cf8d                	beqz	a5,a26 <ips114_show_char+0x8e>
     9ee:	8081d583          	lhu	a1,-2040(gp) # 20000108 <ips114_pencolor>
     9f2:	14fd                	addi	s1,s1,-1
     9f4:	4505                	li	a0,1
     9f6:	0ff4f493          	andi	s1,s1,255
     9fa:	49e010ef          	jal	ra,1e98 <spi_write_16bit>
     9fe:	001a5a13          	srli	s4,s4,0x1
     a02:	f0fd                	bnez	s1,9e8 <ips114_show_char+0x50>
     a04:	0905                	addi	s2,s2,1
     a06:	0405                	addi	s0,s0,1
     a08:	fd6915e3          	bne	s2,s6,9d2 <ips114_show_char+0x3a>
     a0c:	50b2                	lw	ra,44(sp)
     a0e:	5422                	lw	s0,40(sp)
     a10:	5492                	lw	s1,36(sp)
     a12:	5902                	lw	s2,32(sp)
     a14:	49f2                	lw	s3,28(sp)
     a16:	4a62                	lw	s4,24(sp)
     a18:	4ad2                	lw	s5,20(sp)
     a1a:	4b42                	lw	s6,16(sp)
     a1c:	4bb2                	lw	s7,12(sp)
     a1e:	4c22                	lw	s8,8(sp)
     a20:	4c92                	lw	s9,4(sp)
     a22:	6145                	addi	sp,sp,48
     a24:	8082                	ret
     a26:	100c5583          	lhu	a1,256(s8) # 20000100 <ips114_bgcolor>
     a2a:	b7e1                	j	9f2 <ips114_show_char+0x5a>

00000a2c <ips114_show_string>:
     a2c:	1101                	addi	sp,sp,-32
     a2e:	cc22                	sw	s0,24(sp)
     a30:	ca26                	sw	s1,20(sp)
     a32:	c84a                	sw	s2,16(sp)
     a34:	c64e                	sw	s3,12(sp)
     a36:	ce06                	sw	ra,28(sp)
     a38:	892a                	mv	s2,a0
     a3a:	89ae                	mv	s3,a1
     a3c:	84b2                	mv	s1,a2
     a3e:	4401                	li	s0,0
     a40:	008487b3          	add	a5,s1,s0
     a44:	00078603          	lb	a2,0(a5)
     a48:	ea01                	bnez	a2,a58 <ips114_show_string+0x2c>
     a4a:	40f2                	lw	ra,28(sp)
     a4c:	4462                	lw	s0,24(sp)
     a4e:	44d2                	lw	s1,20(sp)
     a50:	4942                	lw	s2,16(sp)
     a52:	49b2                	lw	s3,12(sp)
     a54:	6105                	addi	sp,sp,32
     a56:	8082                	ret
     a58:	00341513          	slli	a0,s0,0x3
     a5c:	954a                	add	a0,a0,s2
     a5e:	0542                	slli	a0,a0,0x10
     a60:	0405                	addi	s0,s0,1
     a62:	85ce                	mv	a1,s3
     a64:	8141                	srli	a0,a0,0x10
     a66:	0442                	slli	s0,s0,0x10
     a68:	3f05                	jal	998 <ips114_show_char>
     a6a:	8041                	srli	s0,s0,0x10
     a6c:	bfd1                	j	a40 <ips114_show_string+0x14>

00000a6e <ips114_init>:
     a6e:	8181a803          	lw	a6,-2024(gp) # 20000118 <SystemCoreClock>
     a72:	1141                	addi	sp,sp,-16
     a74:	0ff00713          	li	a4,255
     a78:	4781                	li	a5,0
     a7a:	0ff00693          	li	a3,255
     a7e:	02200613          	li	a2,34
     a82:	02000593          	li	a1,32
     a86:	4505                	li	a0,1
     a88:	c606                	sw	ra,12(sp)
     a8a:	c422                	sw	s0,8(sp)
     a8c:	c226                	sw	s1,4(sp)
     a8e:	c04a                	sw	s2,0(sp)
     a90:	2ec010ef          	jal	ra,1d7c <spi_init>
     a94:	46c1                	li	a3,16
     a96:	4601                	li	a2,0
     a98:	4585                	li	a1,1
     a9a:	06700513          	li	a0,103
     a9e:	1df000ef          	jal	ra,147c <gpio_init>
     aa2:	46c1                	li	a3,16
     aa4:	4601                	li	a2,0
     aa6:	4585                	li	a1,1
     aa8:	02700513          	li	a0,39
     aac:	1d1000ef          	jal	ra,147c <gpio_init>
     ab0:	46c1                	li	a3,16
     ab2:	4601                	li	a2,0
     ab4:	4585                	li	a1,1
     ab6:	06400513          	li	a0,100
     aba:	1c3000ef          	jal	ra,147c <gpio_init>
     abe:	4585                	li	a1,1
     ac0:	46c1                	li	a3,16
     ac2:	4605                	li	a2,1
     ac4:	06000513          	li	a0,96
     ac8:	1b5000ef          	jal	ra,147c <gpio_init>
     acc:	80418413          	addi	s0,gp,-2044 # 20000104 <ips114_display_dir>
     ad0:	4008                	lw	a0,0(s0)
     ad2:	08000913          	li	s2,128
     ad6:	3d51                	jal	96a <ips114_set_dir>
     ad8:	6795                	lui	a5,0x5
     ada:	54c7a483          	lw	s1,1356(a5) # 554c <GPION+0x4>
     ade:	0c800513          	li	a0,200
     ae2:	0124aa23          	sw	s2,20(s1)
     ae6:	68e000ef          	jal	ra,1174 <Delay_Ms>
     aea:	06400513          	li	a0,100
     aee:	0124a823          	sw	s2,16(s1)
     af2:	682000ef          	jal	ra,1174 <Delay_Ms>
     af6:	03600513          	li	a0,54
     afa:	31f5                	jal	7e6 <ips114_write_index>
     afc:	06400513          	li	a0,100
     b00:	674000ef          	jal	ra,1174 <Delay_Ms>
     b04:	401c                	lw	a5,0(s0)
     b06:	4581                	li	a1,0
     b08:	cf89                	beqz	a5,b22 <ips114_init+0xb4>
     b0a:	4705                	li	a4,1
     b0c:	0c000593          	li	a1,192
     b10:	00e78963          	beq	a5,a4,b22 <ips114_init+0xb4>
     b14:	4709                	li	a4,2
     b16:	07000593          	li	a1,112
     b1a:	00e78463          	beq	a5,a4,b22 <ips114_init+0xb4>
     b1e:	0a000593          	li	a1,160
     b22:	4505                	li	a0,1
     b24:	358010ef          	jal	ra,1e7c <spi_write_8bit>
     b28:	03a00513          	li	a0,58
     b2c:	396d                	jal	7e6 <ips114_write_index>
     b2e:	4595                	li	a1,5
     b30:	4505                	li	a0,1
     b32:	34a010ef          	jal	ra,1e7c <spi_write_8bit>
     b36:	0b200513          	li	a0,178
     b3a:	3175                	jal	7e6 <ips114_write_index>
     b3c:	45b1                	li	a1,12
     b3e:	4505                	li	a0,1
     b40:	33c010ef          	jal	ra,1e7c <spi_write_8bit>
     b44:	45b1                	li	a1,12
     b46:	4505                	li	a0,1
     b48:	334010ef          	jal	ra,1e7c <spi_write_8bit>
     b4c:	4581                	li	a1,0
     b4e:	4505                	li	a0,1
     b50:	32c010ef          	jal	ra,1e7c <spi_write_8bit>
     b54:	03300593          	li	a1,51
     b58:	4505                	li	a0,1
     b5a:	322010ef          	jal	ra,1e7c <spi_write_8bit>
     b5e:	03300593          	li	a1,51
     b62:	4505                	li	a0,1
     b64:	318010ef          	jal	ra,1e7c <spi_write_8bit>
     b68:	0b700513          	li	a0,183
     b6c:	39ad                	jal	7e6 <ips114_write_index>
     b6e:	03500593          	li	a1,53
     b72:	4505                	li	a0,1
     b74:	308010ef          	jal	ra,1e7c <spi_write_8bit>
     b78:	0bb00513          	li	a0,187
     b7c:	31ad                	jal	7e6 <ips114_write_index>
     b7e:	03700593          	li	a1,55
     b82:	4505                	li	a0,1
     b84:	2f8010ef          	jal	ra,1e7c <spi_write_8bit>
     b88:	0c000513          	li	a0,192
     b8c:	39a9                	jal	7e6 <ips114_write_index>
     b8e:	02c00593          	li	a1,44
     b92:	4505                	li	a0,1
     b94:	2e8010ef          	jal	ra,1e7c <spi_write_8bit>
     b98:	0c200513          	li	a0,194
     b9c:	31a9                	jal	7e6 <ips114_write_index>
     b9e:	4585                	li	a1,1
     ba0:	4505                	li	a0,1
     ba2:	2da010ef          	jal	ra,1e7c <spi_write_8bit>
     ba6:	0c300513          	li	a0,195
     baa:	3935                	jal	7e6 <ips114_write_index>
     bac:	45c9                	li	a1,18
     bae:	4505                	li	a0,1
     bb0:	2cc010ef          	jal	ra,1e7c <spi_write_8bit>
     bb4:	0c400513          	li	a0,196
     bb8:	313d                	jal	7e6 <ips114_write_index>
     bba:	02000593          	li	a1,32
     bbe:	4505                	li	a0,1
     bc0:	2bc010ef          	jal	ra,1e7c <spi_write_8bit>
     bc4:	0c600513          	li	a0,198
     bc8:	3939                	jal	7e6 <ips114_write_index>
     bca:	45bd                	li	a1,15
     bcc:	4505                	li	a0,1
     bce:	2ae010ef          	jal	ra,1e7c <spi_write_8bit>
     bd2:	0d000513          	li	a0,208
     bd6:	3901                	jal	7e6 <ips114_write_index>
     bd8:	0a400593          	li	a1,164
     bdc:	4505                	li	a0,1
     bde:	29e010ef          	jal	ra,1e7c <spi_write_8bit>
     be2:	0a100593          	li	a1,161
     be6:	4505                	li	a0,1
     be8:	294010ef          	jal	ra,1e7c <spi_write_8bit>
     bec:	0e000513          	li	a0,224
     bf0:	3edd                	jal	7e6 <ips114_write_index>
     bf2:	0d000593          	li	a1,208
     bf6:	4505                	li	a0,1
     bf8:	284010ef          	jal	ra,1e7c <spi_write_8bit>
     bfc:	4591                	li	a1,4
     bfe:	4505                	li	a0,1
     c00:	27c010ef          	jal	ra,1e7c <spi_write_8bit>
     c04:	45b5                	li	a1,13
     c06:	4505                	li	a0,1
     c08:	274010ef          	jal	ra,1e7c <spi_write_8bit>
     c0c:	45c5                	li	a1,17
     c0e:	4505                	li	a0,1
     c10:	26c010ef          	jal	ra,1e7c <spi_write_8bit>
     c14:	45cd                	li	a1,19
     c16:	4505                	li	a0,1
     c18:	264010ef          	jal	ra,1e7c <spi_write_8bit>
     c1c:	02b00593          	li	a1,43
     c20:	4505                	li	a0,1
     c22:	25a010ef          	jal	ra,1e7c <spi_write_8bit>
     c26:	03f00593          	li	a1,63
     c2a:	4505                	li	a0,1
     c2c:	250010ef          	jal	ra,1e7c <spi_write_8bit>
     c30:	05400593          	li	a1,84
     c34:	4505                	li	a0,1
     c36:	246010ef          	jal	ra,1e7c <spi_write_8bit>
     c3a:	04c00593          	li	a1,76
     c3e:	4505                	li	a0,1
     c40:	23c010ef          	jal	ra,1e7c <spi_write_8bit>
     c44:	45e1                	li	a1,24
     c46:	4505                	li	a0,1
     c48:	234010ef          	jal	ra,1e7c <spi_write_8bit>
     c4c:	45b5                	li	a1,13
     c4e:	4505                	li	a0,1
     c50:	22c010ef          	jal	ra,1e7c <spi_write_8bit>
     c54:	45ad                	li	a1,11
     c56:	4505                	li	a0,1
     c58:	224010ef          	jal	ra,1e7c <spi_write_8bit>
     c5c:	45fd                	li	a1,31
     c5e:	4505                	li	a0,1
     c60:	21c010ef          	jal	ra,1e7c <spi_write_8bit>
     c64:	02300593          	li	a1,35
     c68:	4505                	li	a0,1
     c6a:	212010ef          	jal	ra,1e7c <spi_write_8bit>
     c6e:	0e100513          	li	a0,225
     c72:	3e95                	jal	7e6 <ips114_write_index>
     c74:	0d000593          	li	a1,208
     c78:	4505                	li	a0,1
     c7a:	202010ef          	jal	ra,1e7c <spi_write_8bit>
     c7e:	4591                	li	a1,4
     c80:	4505                	li	a0,1
     c82:	1fa010ef          	jal	ra,1e7c <spi_write_8bit>
     c86:	45b1                	li	a1,12
     c88:	4505                	li	a0,1
     c8a:	1f2010ef          	jal	ra,1e7c <spi_write_8bit>
     c8e:	45c5                	li	a1,17
     c90:	4505                	li	a0,1
     c92:	1ea010ef          	jal	ra,1e7c <spi_write_8bit>
     c96:	45cd                	li	a1,19
     c98:	4505                	li	a0,1
     c9a:	1e2010ef          	jal	ra,1e7c <spi_write_8bit>
     c9e:	02c00593          	li	a1,44
     ca2:	4505                	li	a0,1
     ca4:	1d8010ef          	jal	ra,1e7c <spi_write_8bit>
     ca8:	03f00593          	li	a1,63
     cac:	4505                	li	a0,1
     cae:	1ce010ef          	jal	ra,1e7c <spi_write_8bit>
     cb2:	04400593          	li	a1,68
     cb6:	4505                	li	a0,1
     cb8:	1c4010ef          	jal	ra,1e7c <spi_write_8bit>
     cbc:	05100593          	li	a1,81
     cc0:	4505                	li	a0,1
     cc2:	1ba010ef          	jal	ra,1e7c <spi_write_8bit>
     cc6:	02f00593          	li	a1,47
     cca:	4505                	li	a0,1
     ccc:	1b0010ef          	jal	ra,1e7c <spi_write_8bit>
     cd0:	45fd                	li	a1,31
     cd2:	4505                	li	a0,1
     cd4:	1a8010ef          	jal	ra,1e7c <spi_write_8bit>
     cd8:	45fd                	li	a1,31
     cda:	4505                	li	a0,1
     cdc:	1a0010ef          	jal	ra,1e7c <spi_write_8bit>
     ce0:	02000593          	li	a1,32
     ce4:	4505                	li	a0,1
     ce6:	196010ef          	jal	ra,1e7c <spi_write_8bit>
     cea:	02300593          	li	a1,35
     cee:	4505                	li	a0,1
     cf0:	18c010ef          	jal	ra,1e7c <spi_write_8bit>
     cf4:	02100513          	li	a0,33
     cf8:	34fd                	jal	7e6 <ips114_write_index>
     cfa:	4545                	li	a0,17
     cfc:	34ed                	jal	7e6 <ips114_write_index>
     cfe:	07800513          	li	a0,120
     d02:	298d                	jal	1174 <Delay_Ms>
     d04:	02900513          	li	a0,41
     d08:	3cf9                	jal	7e6 <ips114_write_index>
     d0a:	4422                	lw	s0,8(sp)
     d0c:	40b2                	lw	ra,12(sp)
     d0e:	4492                	lw	s1,4(sp)
     d10:	4902                	lw	s2,0(sp)
     d12:	0141                	addi	sp,sp,16
     d14:	b909                	j	926 <ips114_clear>

00000d16 <mt9v03x_get_config_dvp.constprop.0>:
     d16:	7179                	addi	sp,sp,-48
     d18:	d226                	sw	s1,36(sp)
     d1a:	ce4e                	sw	s3,28(sp)
     d1c:	cc52                	sw	s4,24(sp)
     d1e:	200004b7          	lui	s1,0x20000
     d22:	7a7d                	lui	s4,0xfffff
     d24:	d422                	sw	s0,40(sp)
     d26:	ca56                	sw	s5,20(sp)
     d28:	c85a                	sw	s6,16(sp)
     d2a:	d606                	sw	ra,44(sp)
     d2c:	d04a                	sw	s2,32(sp)
     d2e:	00048493          	mv	s1,s1
     d32:	4401                	li	s0,0
     d34:	1a5a0a13          	addi	s4,s4,421 # fffff1a5 <_eusrstack+0xdfff71a5>
     d38:	5b7d                	li	s6,-1
     d3a:	83418993          	addi	s3,gp,-1996 # 20000134 <receive_dvp>
     d3e:	0004d783          	lhu	a5,0(s1) # 20000000 <_data_vma>
     d42:	4611                	li	a2,4
     d44:	006c                	addi	a1,sp,12
     d46:	00879713          	slli	a4,a5,0x8
     d4a:	83a1                	srli	a5,a5,0x8
     d4c:	8fd9                	or	a5,a5,a4
     d4e:	4511                	li	a0,4
     d50:	01411623          	sh	s4,12(sp)
     d54:	00f11723          	sh	a5,14(sp)
     d58:	08000913          	li	s2,128
     d5c:	232010ef          	jal	ra,1f8e <uart_putbuff>
     d60:	83818793          	addi	a5,gp,-1992 # 20000138 <uart_receive_flag_dvp>
     d64:	0007c783          	lbu	a5,0(a5)
     d68:	83818713          	addi	a4,gp,-1992 # 20000138 <uart_receive_flag_dvp>
     d6c:	0ff7f793          	andi	a5,a5,255
     d70:	c3a1                	beqz	a5,db0 <mt9v03x_get_config_dvp.constprop.0+0x9a>
     d72:	00091363          	bnez	s2,d78 <mt9v03x_get_config_dvp.constprop.0+0x62>
     d76:	c431                	beqz	s0,dc2 <mt9v03x_get_config_dvp.constprop.0+0xac>
     d78:	0019c783          	lbu	a5,1(s3)
     d7c:	00070023          	sb	zero,0(a4)
     d80:	0029c703          	lbu	a4,2(s3)
     d84:	07a2                	slli	a5,a5,0x8
     d86:	0405                	addi	s0,s0,1
     d88:	8fd9                	or	a5,a5,a4
     d8a:	0442                	slli	s0,s0,0x10
     d8c:	00f49123          	sh	a5,2(s1)
     d90:	8041                	srli	s0,s0,0x10
     d92:	47a5                	li	a5,9
     d94:	0491                	addi	s1,s1,4
     d96:	faf414e3          	bne	s0,a5,d3e <mt9v03x_get_config_dvp.constprop.0+0x28>
     d9a:	4501                	li	a0,0
     d9c:	50b2                	lw	ra,44(sp)
     d9e:	5422                	lw	s0,40(sp)
     da0:	5492                	lw	s1,36(sp)
     da2:	5902                	lw	s2,32(sp)
     da4:	49f2                	lw	s3,28(sp)
     da6:	4a62                	lw	s4,24(sp)
     da8:	4ad2                	lw	s5,20(sp)
     daa:	4b42                	lw	s6,16(sp)
     dac:	6145                	addi	sp,sp,48
     dae:	8082                	ret
     db0:	197d                	addi	s2,s2,-1
     db2:	0942                	slli	s2,s2,0x10
     db4:	41095913          	srai	s2,s2,0x10
     db8:	fb690fe3          	beq	s2,s6,d76 <mt9v03x_get_config_dvp.constprop.0+0x60>
     dbc:	4505                	li	a0,1
     dbe:	2e5d                	jal	1174 <Delay_Ms>
     dc0:	b745                	j	d60 <mt9v03x_get_config_dvp.constprop.0+0x4a>
     dc2:	4505                	li	a0,1
     dc4:	bfe1                	j	d9c <mt9v03x_get_config_dvp.constprop.0+0x86>

00000dc6 <mt9v03x_uart_callback_dvp>:
     dc6:	1141                	addi	sp,sp,-16
     dc8:	c422                	sw	s0,8(sp)
     dca:	8371c783          	lbu	a5,-1993(gp) # 20000137 <receive_num_dvp>
     dce:	c226                	sw	s1,4(sp)
     dd0:	83418593          	addi	a1,gp,-1996 # 20000134 <receive_dvp>
     dd4:	95be                	add	a1,a1,a5
     dd6:	4511                	li	a0,4
     dd8:	c606                	sw	ra,12(sp)
     dda:	2b6010ef          	jal	ra,2090 <uart_query>
     dde:	83418493          	addi	s1,gp,-1996 # 20000134 <receive_dvp>
     de2:	83718793          	addi	a5,gp,-1993 # 20000137 <receive_num_dvp>
     de6:	c511                	beqz	a0,df2 <mt9v03x_uart_callback_dvp+0x2c>
     de8:	0007c703          	lbu	a4,0(a5)
     dec:	0705                	addi	a4,a4,1
     dee:	00e78023          	sb	a4,0(a5)
     df2:	0007c683          	lbu	a3,0(a5)
     df6:	4705                	li	a4,1
     df8:	00e69f63          	bne	a3,a4,e16 <mt9v03x_uart_callback_dvp+0x50>
     dfc:	0004c683          	lbu	a3,0(s1)
     e00:	0a500713          	li	a4,165
     e04:	00e68463          	beq	a3,a4,e0c <mt9v03x_uart_callback_dvp+0x46>
     e08:	00078023          	sb	zero,0(a5)
     e0c:	40b2                	lw	ra,12(sp)
     e0e:	4422                	lw	s0,8(sp)
     e10:	4492                	lw	s1,4(sp)
     e12:	0141                	addi	sp,sp,16
     e14:	8082                	ret
     e16:	460d                	li	a2,3
     e18:	fec69ae3          	bne	a3,a2,e0c <mt9v03x_uart_callback_dvp+0x46>
     e1c:	00078023          	sb	zero,0(a5)
     e20:	82e18c23          	sb	a4,-1992(gp) # 20000138 <uart_receive_flag_dvp>
     e24:	b7e5                	j	e0c <mt9v03x_uart_callback_dvp+0x46>

00000e26 <mt9v03x_handler_dvp>:
     e26:	200067b7          	lui	a5,0x20006
     e2a:	9747a703          	lw	a4,-1676(a5) # 20005974 <camera_buffer_addr>
     e2e:	500507b7          	lui	a5,0x50050
     e32:	4685                	li	a3,1
     e34:	c798                	sw	a4,8(a5)
     e36:	82d18823          	sb	a3,-2000(gp) # 20000130 <_edata>
     e3a:	0007c703          	lbu	a4,0(a5) # 50050000 <_eusrstack+0x30048000>
     e3e:	00176713          	ori	a4,a4,1
     e42:	00e78023          	sb	a4,0(a5)
     e46:	8082                	ret

00000e48 <mt9v03x_init_dvp>:
     e48:	6589                	lui	a1,0x2
     e4a:	7139                	addi	sp,sp,-64
     e4c:	05100693          	li	a3,81
     e50:	05000613          	li	a2,80
     e54:	58058593          	addi	a1,a1,1408 # 2580 <key_init+0x2e>
     e58:	4511                	li	a0,4
     e5a:	de06                	sw	ra,60(sp)
     e5c:	dc22                	sw	s0,56(sp)
     e5e:	da26                	sw	s1,52(sp)
     e60:	d84a                	sw	s2,48(sp)
     e62:	d64e                	sw	s3,44(sp)
     e64:	d452                	sw	s4,40(sp)
     e66:	48e010ef          	jal	ra,22f4 <uart_init>
     e6a:	4601                	li	a2,0
     e6c:	4585                	li	a1,1
     e6e:	4511                	li	a0,4
     e70:	14c010ef          	jal	ra,1fbc <uart_interrupt_init>
     e74:	74a000ef          	jal	ra,15be <interrupt_global_enable>
     e78:	83818793          	addi	a5,gp,-1992 # 20000138 <uart_receive_flag_dvp>
     e7c:	00078023          	sb	zero,0(a5)
     e80:	3d59                	jal	d16 <mt9v03x_get_config_dvp.constprop.0>
     e82:	c105                	beqz	a0,ea2 <mt9v03x_init_dvp+0x5a>
     e84:	000056b7          	lui	a3,0x5
     e88:	6615                	lui	a2,0x5
     e8a:	ee068693          	addi	a3,a3,-288 # 4ee0 <__func__.6292+0x14>
     e8e:	ecc60613          	addi	a2,a2,-308 # 4ecc <__func__.6292>
     e92:	12b00593          	li	a1,299
     e96:	00005537          	lui	a0,0x5
     e9a:	ee450513          	addi	a0,a0,-284 # 4ee4 <__func__.6292+0x18>
     e9e:	481020ef          	jal	ra,3b1e <__assert_func>
     ea2:	83818413          	addi	s0,gp,-1992 # 20000138 <uart_receive_flag_dvp>
     ea6:	200004b7          	lui	s1,0x20000
     eaa:	00040023          	sb	zero,0(s0)
     eae:	02448493          	addi	s1,s1,36 # 20000024 <mt9v03x_set_confing_buffer_dvp>
     eb2:	00040023          	sb	zero,0(s0)
     eb6:	02848913          	addi	s2,s1,40
     eba:	fa500993          	li	s3,-91
     ebe:	0004d783          	lhu	a5,0(s1)
     ec2:	4611                	li	a2,4
     ec4:	086c                	addi	a1,sp,28
     ec6:	00f10ea3          	sb	a5,29(sp)
     eca:	0024d783          	lhu	a5,2(s1)
     ece:	4511                	li	a0,4
     ed0:	01310e23          	sb	s3,28(sp)
     ed4:	00879713          	slli	a4,a5,0x8
     ed8:	83a1                	srli	a5,a5,0x8
     eda:	8fd9                	or	a5,a5,a4
     edc:	00f11f23          	sh	a5,30(sp)
     ee0:	0ae010ef          	jal	ra,1f8e <uart_putbuff>
     ee4:	4509                	li	a0,2
     ee6:	0491                	addi	s1,s1,4
     ee8:	2471                	jal	1174 <Delay_Ms>
     eea:	fd249ae3          	bne	s1,s2,ebe <mt9v03x_init_dvp+0x76>
     eee:	08100493          	li	s1,129
     ef2:	00044783          	lbu	a5,0(s0)
     ef6:	0ff7f793          	andi	a5,a5,255
     efa:	e789                	bnez	a5,f04 <mt9v03x_init_dvp+0xbc>
     efc:	14fd                	addi	s1,s1,-1
     efe:	04c2                	slli	s1,s1,0x10
     f00:	80c1                	srli	s1,s1,0x10
     f02:	ec85                	bnez	s1,f3a <mt9v03x_init_dvp+0xf2>
     f04:	00040023          	sb	zero,0(s0)
     f08:	08000493          	li	s1,128
     f0c:	83418913          	addi	s2,gp,-1996 # 20000134 <receive_dvp>
     f10:	0ff00a13          	li	s4,255
     f14:	59fd                	li	s3,-1
     f16:	00194783          	lbu	a5,1(s2)
     f1a:	00294703          	lbu	a4,2(s2)
     f1e:	8ff9                	and	a5,a5,a4
     f20:	03479063          	bne	a5,s4,f40 <mt9v03x_init_dvp+0xf8>
     f24:	e495                	bnez	s1,f50 <mt9v03x_init_dvp+0x108>
     f26:	000056b7          	lui	a3,0x5
     f2a:	6615                	lui	a2,0x5
     f2c:	ee068693          	addi	a3,a3,-288 # 4ee0 <__func__.6292+0x14>
     f30:	ecc60613          	addi	a2,a2,-308 # 4ecc <__func__.6292>
     f34:	13200593          	li	a1,306
     f38:	bfb9                	j	e96 <mt9v03x_init_dvp+0x4e>
     f3a:	4505                	li	a0,1
     f3c:	2c25                	jal	1174 <Delay_Ms>
     f3e:	bf55                	j	ef2 <mt9v03x_init_dvp+0xaa>
     f40:	14fd                	addi	s1,s1,-1
     f42:	04c2                	slli	s1,s1,0x10
     f44:	84c1                	srai	s1,s1,0x10
     f46:	ff3480e3          	beq	s1,s3,f26 <mt9v03x_init_dvp+0xde>
     f4a:	4505                	li	a0,1
     f4c:	2425                	jal	1174 <Delay_Ms>
     f4e:	b7e1                	j	f16 <mt9v03x_init_dvp+0xce>
     f50:	00040023          	sb	zero,0(s0)
     f54:	33c9                	jal	d16 <mt9v03x_get_config_dvp.constprop.0>
     f56:	c919                	beqz	a0,f6c <mt9v03x_init_dvp+0x124>
     f58:	000056b7          	lui	a3,0x5
     f5c:	6615                	lui	a2,0x5
     f5e:	ee068693          	addi	a3,a3,-288 # 4ee0 <__func__.6292+0x14>
     f62:	ecc60613          	addi	a2,a2,-308 # 4ecc <__func__.6292>
     f66:	13900593          	li	a1,313
     f6a:	b735                	j	e96 <mt9v03x_init_dvp+0x4e>
     f6c:	2d91                	jal	15c0 <interrupt_global_disable>
     f6e:	4791                	li	a5,4
     f70:	c43e                	sw	a5,8(sp)
     f72:	4795                	li	a5,5
     f74:	c23e                	sw	a5,4(sp)
     f76:	4799                	li	a5,6
     f78:	c03e                	sw	a5,0(sp)
     f7a:	02900893          	li	a7,41
     f7e:	02800813          	li	a6,40
     f82:	02600793          	li	a5,38
     f86:	04b00713          	li	a4,75
     f8a:	04900693          	li	a3,73
     f8e:	04800613          	li	a2,72
     f92:	45a9                	li	a1,10
     f94:	4525                	li	a0,9
     f96:	2e95                	jal	130a <dvp_gpio_init>
     f98:	20000537          	lui	a0,0x20000
     f9c:	6619                	lui	a2,0x6
     f9e:	15450713          	addi	a4,a0,340 # 20000154 <mt9v03x_image_dvp>
     fa2:	200067b7          	lui	a5,0x20006
     fa6:	15450513          	addi	a0,a0,340
     faa:	4685                	li	a3,1
     fac:	82060613          	addi	a2,a2,-2016 # 5820 <_data_lma+0x7c>
     fb0:	4581                	li	a1,0
     fb2:	96e7aa23          	sw	a4,-1676(a5) # 20005974 <camera_buffer_addr>
     fb6:	2921                	jal	13ce <dvp_camera_init>
     fb8:	50f2                	lw	ra,60(sp)
     fba:	5462                	lw	s0,56(sp)
     fbc:	54d2                	lw	s1,52(sp)
     fbe:	5942                	lw	s2,48(sp)
     fc0:	59b2                	lw	s3,44(sp)
     fc2:	5a22                	lw	s4,40(sp)
     fc4:	4501                	li	a0,0
     fc6:	6121                	addi	sp,sp,64
     fc8:	8082                	ret

00000fca <ws2812b_write>:
     fca:	7179                	addi	sp,sp,-48
     fcc:	d422                	sw	s0,40(sp)
     fce:	d04a                	sw	s2,32(sp)
     fd0:	ce4e                	sw	s3,28(sp)
     fd2:	cc52                	sw	s4,24(sp)
     fd4:	ca56                	sw	s5,20(sp)
     fd6:	d606                	sw	ra,44(sp)
     fd8:	d226                	sw	s1,36(sp)
     fda:	00154783          	lbu	a5,1(a0)
     fde:	40013437          	lui	s0,0x40013
     fe2:	4581                	li	a1,0
     fe4:	00f10623          	sb	a5,12(sp)
     fe8:	00054783          	lbu	a5,0(a0)
     fec:	00c10913          	addi	s2,sp,12
     ff0:	00f10a13          	addi	s4,sp,15
     ff4:	00f106a3          	sb	a5,13(sp)
     ff8:	00254783          	lbu	a5,2(a0)
     ffc:	c0040513          	addi	a0,s0,-1024 # 40012c00 <_eusrstack+0x2000ac00>
    1000:	c0040413          	addi	s0,s0,-1024
    1004:	00f10723          	sb	a5,14(sp)
    1008:	086020ef          	jal	ra,308e <TIM_SetCounter>
    100c:	6589                	lui	a1,0x2
    100e:	51c58a93          	addi	s5,a1,1308 # 251c <car_init+0x32>
    1012:	13458993          	addi	s3,a1,308
    1016:	44a1                	li	s1,8
    1018:	00094783          	lbu	a5,0(s2)
    101c:	14fd                	addi	s1,s1,-1
    101e:	85ce                	mv	a1,s3
    1020:	4097d7b3          	sra	a5,a5,s1
    1024:	8b85                	andi	a5,a5,1
    1026:	e391                	bnez	a5,102a <ws2812b_write+0x60>
    1028:	85d6                	mv	a1,s5
    102a:	450d                	li	a0,3
    102c:	2b55                	jal	15e0 <pwm_duty>
    102e:	4585                	li	a1,1
    1030:	8522                	mv	a0,s0
    1032:	7bb010ef          	jal	ra,2fec <TIM_Cmd>
    1036:	4585                	li	a1,1
    1038:	8522                	mv	a0,s0
    103a:	05a020ef          	jal	ra,3094 <TIM_GetFlagStatus>
    103e:	dd65                	beqz	a0,1036 <ws2812b_write+0x6c>
    1040:	4581                	li	a1,0
    1042:	8522                	mv	a0,s0
    1044:	7a9010ef          	jal	ra,2fec <TIM_Cmd>
    1048:	4585                	li	a1,1
    104a:	8522                	mv	a0,s0
    104c:	054020ef          	jal	ra,30a0 <TIM_ClearFlag>
    1050:	4581                	li	a1,0
    1052:	8522                	mv	a0,s0
    1054:	03a020ef          	jal	ra,308e <TIM_SetCounter>
    1058:	f0e1                	bnez	s1,1018 <ws2812b_write+0x4e>
    105a:	0905                	addi	s2,s2,1
    105c:	fb2a1de3          	bne	s4,s2,1016 <ws2812b_write+0x4c>
    1060:	50b2                	lw	ra,44(sp)
    1062:	5422                	lw	s0,40(sp)
    1064:	5492                	lw	s1,36(sp)
    1066:	5902                	lw	s2,32(sp)
    1068:	49f2                	lw	s3,28(sp)
    106a:	4a62                	lw	s4,24(sp)
    106c:	4ad2                	lw	s5,20(sp)
    106e:	6145                	addi	sp,sp,48
    1070:	8082                	ret

00001072 <ws2812b_init>:
    1072:	0002c5b7          	lui	a1,0x2c
    1076:	1101                	addi	sp,sp,-32
    1078:	4681                	li	a3,0
    107a:	4601                	li	a2,0
    107c:	f2058593          	addi	a1,a1,-224 # 2bf20 <_data_lma+0x2677c>
    1080:	450d                	li	a0,3
    1082:	ce06                	sw	ra,28(sp)
    1084:	00011623          	sh	zero,12(sp)
    1088:	00010723          	sb	zero,14(sp)
    108c:	1f5000ef          	jal	ra,1a80 <pwm_init>
    1090:	40013537          	lui	a0,0x40013
    1094:	4589                	li	a1,2
    1096:	c0050513          	addi	a0,a0,-1024 # 40012c00 <_eusrstack+0x2000ac00>
    109a:	7dd010ef          	jal	ra,3076 <TIM_OC4PolarityConfig>
    109e:	0068                	addi	a0,sp,12
    10a0:	372d                	jal	fca <ws2812b_write>
    10a2:	06400513          	li	a0,100
    10a6:	2859                	jal	113c <Delay_Us>
    10a8:	0068                	addi	a0,sp,12
    10aa:	3705                	jal	fca <ws2812b_write>
    10ac:	40f2                	lw	ra,28(sp)
    10ae:	6105                	addi	sp,sp,32
    10b0:	8082                	ret

000010b2 <board_init>:
    10b2:	400217b7          	lui	a5,0x40021
    10b6:	43dc                	lw	a5,4(a5)
    10b8:	007a1737          	lui	a4,0x7a1
    10bc:	20070713          	addi	a4,a4,512 # 7a1200 <_data_lma+0x79ba5c>
    10c0:	83c9                	srli	a5,a5,0x12
    10c2:	8bbd                	andi	a5,a5,15
    10c4:	02e787b3          	mul	a5,a5,a4
    10c8:	00f42737          	lui	a4,0xf42
    10cc:	40070713          	addi	a4,a4,1024 # f42400 <_data_lma+0xf3cc5c>
    10d0:	65f1                	lui	a1,0x1c
    10d2:	02100693          	li	a3,33
    10d6:	02000613          	li	a2,32
    10da:	20058593          	addi	a1,a1,512 # 1c200 <_data_lma+0x16a5c>
    10de:	4509                	li	a0,2
    10e0:	97ba                	add	a5,a5,a4
    10e2:	82f1ae23          	sw	a5,-1988(gp) # 2000013c <sys_clk>
    10e6:	20e0106f          	j	22f4 <uart_init>

000010ea <_write>:
    10ea:	1101                	addi	sp,sp,-32
    10ec:	ca26                	sw	s1,20(sp)
    10ee:	400054b7          	lui	s1,0x40005
    10f2:	cc22                	sw	s0,24(sp)
    10f4:	c84a                	sw	s2,16(sp)
    10f6:	c64e                	sw	s3,12(sp)
    10f8:	ce06                	sw	ra,28(sp)
    10fa:	89ae                	mv	s3,a1
    10fc:	8932                	mv	s2,a2
    10fe:	4401                	li	s0,0
    1100:	80048493          	addi	s1,s1,-2048 # 40004800 <_eusrstack+0x1fffc800>
    1104:	01244a63          	blt	s0,s2,1118 <_write+0x2e>
    1108:	40f2                	lw	ra,28(sp)
    110a:	4462                	lw	s0,24(sp)
    110c:	854a                	mv	a0,s2
    110e:	44d2                	lw	s1,20(sp)
    1110:	4942                	lw	s2,16(sp)
    1112:	49b2                	lw	s3,12(sp)
    1114:	6105                	addi	sp,sp,32
    1116:	8082                	ret
    1118:	04000593          	li	a1,64
    111c:	8526                	mv	a0,s1
    111e:	0f0020ef          	jal	ra,320e <USART_GetFlagStatus>
    1122:	d97d                	beqz	a0,1118 <_write+0x2e>
    1124:	008987b3          	add	a5,s3,s0
    1128:	00078583          	lb	a1,0(a5) # 40021000 <_eusrstack+0x20019000>
    112c:	8526                	mv	a0,s1
    112e:	0405                	addi	s0,s0,1
    1130:	05c2                	slli	a1,a1,0x10
    1132:	81c1                	srli	a1,a1,0x10
    1134:	0d0020ef          	jal	ra,3204 <USART_SendData>
    1138:	b7f1                	j	1104 <_write+0x1a>

0000113a <Delay_Init>:
    113a:	8082                	ret

0000113c <Delay_Us>:
    113c:	8181a783          	lw	a5,-2024(gp) # 20000118 <SystemCoreClock>
    1140:	007a1737          	lui	a4,0x7a1
    1144:	20070713          	addi	a4,a4,512 # 7a1200 <_data_lma+0x79ba5c>
    1148:	02e7d7b3          	divu	a5,a5,a4
    114c:	4681                	li	a3,0
    114e:	4701                	li	a4,0
    1150:	02a78533          	mul	a0,a5,a0
    1154:	e000f7b7          	lui	a5,0xe000f
    1158:	0007a023          	sw	zero,0(a5) # e000f000 <_eusrstack+0xc0007000>
    115c:	c794                	sw	a3,8(a5)
    115e:	c7d8                	sw	a4,12(a5)
    1160:	4705                	li	a4,1
    1162:	c398                	sw	a4,0(a5)
    1164:	e000f6b7          	lui	a3,0xe000f
    1168:	4698                	lw	a4,8(a3)
    116a:	46dc                	lw	a5,12(a3)
    116c:	e399                	bnez	a5,1172 <Delay_Us+0x36>
    116e:	fee57de3          	bgeu	a0,a4,1168 <Delay_Us+0x2c>
    1172:	8082                	ret

00001174 <Delay_Ms>:
    1174:	8181a783          	lw	a5,-2024(gp) # 20000118 <SystemCoreClock>
    1178:	6709                	lui	a4,0x2
    117a:	f4070713          	addi	a4,a4,-192 # 1f40 <timbase_init+0x76>
    117e:	02e7d7b3          	divu	a5,a5,a4
    1182:	4681                	li	a3,0
    1184:	4701                	li	a4,0
    1186:	02a78533          	mul	a0,a5,a0
    118a:	e000f7b7          	lui	a5,0xe000f
    118e:	0007a023          	sw	zero,0(a5) # e000f000 <_eusrstack+0xc0007000>
    1192:	c794                	sw	a3,8(a5)
    1194:	c7d8                	sw	a4,12(a5)
    1196:	4705                	li	a4,1
    1198:	c398                	sw	a4,0(a5)
    119a:	e000f6b7          	lui	a3,0xe000f
    119e:	4698                	lw	a4,8(a3)
    11a0:	46dc                	lw	a5,12(a3)
    11a2:	e399                	bnez	a5,11a8 <Delay_Ms+0x34>
    11a4:	fee57de3          	bgeu	a0,a4,119e <Delay_Ms+0x2a>
    11a8:	8082                	ret

000011aa <adc_gpio_init>:
    11aa:	e509                	bnez	a0,11b4 <adc_gpio_init+0xa>
    11ac:	4681                	li	a3,0
    11ae:	4601                	li	a2,0
    11b0:	4581                	li	a1,0
    11b2:	a4e9                	j	147c <gpio_init>
    11b4:	4705                	li	a4,1
    11b6:	fee50be3          	beq	a0,a4,11ac <adc_gpio_init+0x2>
    11ba:	4709                	li	a4,2
    11bc:	fee508e3          	beq	a0,a4,11ac <adc_gpio_init+0x2>
    11c0:	470d                	li	a4,3
    11c2:	fee505e3          	beq	a0,a4,11ac <adc_gpio_init+0x2>
    11c6:	4711                	li	a4,4
    11c8:	fee502e3          	beq	a0,a4,11ac <adc_gpio_init+0x2>
    11cc:	4715                	li	a4,5
    11ce:	fce50fe3          	beq	a0,a4,11ac <adc_gpio_init+0x2>
    11d2:	4719                	li	a4,6
    11d4:	fce50ce3          	beq	a0,a4,11ac <adc_gpio_init+0x2>
    11d8:	471d                	li	a4,7
    11da:	fce509e3          	beq	a0,a4,11ac <adc_gpio_init+0x2>
    11de:	4721                	li	a4,8
    11e0:	00e51863          	bne	a0,a4,11f0 <adc_gpio_init+0x46>
    11e4:	4681                	li	a3,0
    11e6:	4601                	li	a2,0
    11e8:	4581                	li	a1,0
    11ea:	02000513          	li	a0,32
    11ee:	b7d1                	j	11b2 <adc_gpio_init+0x8>
    11f0:	4725                	li	a4,9
    11f2:	00e51863          	bne	a0,a4,1202 <adc_gpio_init+0x58>
    11f6:	4681                	li	a3,0
    11f8:	4601                	li	a2,0
    11fa:	4581                	li	a1,0
    11fc:	02100513          	li	a0,33
    1200:	bf4d                	j	11b2 <adc_gpio_init+0x8>
    1202:	4729                	li	a4,10
    1204:	00e51863          	bne	a0,a4,1214 <adc_gpio_init+0x6a>
    1208:	4681                	li	a3,0
    120a:	4601                	li	a2,0
    120c:	4581                	li	a1,0
    120e:	04000513          	li	a0,64
    1212:	b745                	j	11b2 <adc_gpio_init+0x8>
    1214:	472d                	li	a4,11
    1216:	00e51863          	bne	a0,a4,1226 <adc_gpio_init+0x7c>
    121a:	4681                	li	a3,0
    121c:	4601                	li	a2,0
    121e:	4581                	li	a1,0
    1220:	04100513          	li	a0,65
    1224:	b779                	j	11b2 <adc_gpio_init+0x8>
    1226:	4731                	li	a4,12
    1228:	00e51863          	bne	a0,a4,1238 <adc_gpio_init+0x8e>
    122c:	4681                	li	a3,0
    122e:	4601                	li	a2,0
    1230:	4581                	li	a1,0
    1232:	04200513          	li	a0,66
    1236:	bfb5                	j	11b2 <adc_gpio_init+0x8>
    1238:	4735                	li	a4,13
    123a:	00e51863          	bne	a0,a4,124a <adc_gpio_init+0xa0>
    123e:	4681                	li	a3,0
    1240:	4601                	li	a2,0
    1242:	4581                	li	a1,0
    1244:	04300513          	li	a0,67
    1248:	b7ad                	j	11b2 <adc_gpio_init+0x8>
    124a:	4739                	li	a4,14
    124c:	00e51863          	bne	a0,a4,125c <adc_gpio_init+0xb2>
    1250:	4681                	li	a3,0
    1252:	4601                	li	a2,0
    1254:	4581                	li	a1,0
    1256:	04400513          	li	a0,68
    125a:	bfa1                	j	11b2 <adc_gpio_init+0x8>
    125c:	473d                	li	a4,15
    125e:	00e51863          	bne	a0,a4,126e <adc_gpio_init+0xc4>
    1262:	4681                	li	a3,0
    1264:	4601                	li	a2,0
    1266:	4581                	li	a1,0
    1268:	04500513          	li	a0,69
    126c:	b799                	j	11b2 <adc_gpio_init+0x8>
    126e:	8082                	ret

00001270 <adc_init>:
    1270:	7179                	addi	sp,sp,-48
    1272:	d422                	sw	s0,40(sp)
    1274:	4585                	li	a1,1
    1276:	842a                	mv	s0,a0
    1278:	20000513          	li	a0,512
    127c:	d606                	sw	ra,44(sp)
    127e:	d226                	sw	s1,36(sp)
    1280:	107010ef          	jal	ra,2b86 <RCC_APB2PeriphClockCmd>
    1284:	8522                	mv	a0,s0
    1286:	3715                	jal	11aa <adc_gpio_init>
    1288:	83c1a703          	lw	a4,-1988(gp) # 2000013c <sys_clk>
    128c:	0501c7b7          	lui	a5,0x501c
    1290:	d0078793          	addi	a5,a5,-768 # 501bd00 <_data_lma+0x501655c>
    1294:	6531                	lui	a0,0xc
    1296:	00e7e363          	bltu	a5,a4,129c <adc_init+0x2c>
    129a:	6521                	lui	a0,0x8
    129c:	40012437          	lui	s0,0x40012
    12a0:	7a8010ef          	jal	ra,2a48 <RCC_ADCCLKConfig>
    12a4:	40040513          	addi	a0,s0,1024 # 40012400 <_eusrstack+0x2000a400>
    12a8:	49c010ef          	jal	ra,2744 <ADC_DeInit>
    12ac:	000e07b7          	lui	a5,0xe0
    12b0:	c63e                	sw	a5,12(sp)
    12b2:	858a                	mv	a1,sp
    12b4:	4785                	li	a5,1
    12b6:	40040513          	addi	a0,s0,1024
    12ba:	00f10a23          	sb	a5,20(sp)
    12be:	c002                	sw	zero,0(sp)
    12c0:	c202                	sw	zero,4(sp)
    12c2:	c402                	sw	zero,8(sp)
    12c4:	c802                	sw	zero,16(sp)
    12c6:	4c4010ef          	jal	ra,278a <ADC_Init>
    12ca:	4585                	li	a1,1
    12cc:	40040513          	addi	a0,s0,1024
    12d0:	512010ef          	jal	ra,27e2 <ADC_Cmd>
    12d4:	40040513          	addi	a0,s0,1024
    12d8:	51a010ef          	jal	ra,27f2 <ADC_ResetCalibration>
    12dc:	40040493          	addi	s1,s0,1024
    12e0:	8526                	mv	a0,s1
    12e2:	51a010ef          	jal	ra,27fc <ADC_GetResetCalibrationStatus>
    12e6:	fd6d                	bnez	a0,12e0 <adc_init+0x70>
    12e8:	40040513          	addi	a0,s0,1024
    12ec:	40012437          	lui	s0,0x40012
    12f0:	514010ef          	jal	ra,2804 <ADC_StartCalibration>
    12f4:	40040413          	addi	s0,s0,1024 # 40012400 <_eusrstack+0x2000a400>
    12f8:	8522                	mv	a0,s0
    12fa:	514010ef          	jal	ra,280e <ADC_GetCalibrationStatus>
    12fe:	fd6d                	bnez	a0,12f8 <adc_init+0x88>
    1300:	50b2                	lw	ra,44(sp)
    1302:	5422                	lw	s0,40(sp)
    1304:	5492                	lw	s1,36(sp)
    1306:	6145                	addi	sp,sp,48
    1308:	8082                	ret

0000130a <dvp_gpio_init>:
    130a:	7179                	addi	sp,sp,-48
    130c:	ce4e                	sw	s3,28(sp)
    130e:	cc52                	sw	s4,24(sp)
    1310:	ca56                	sw	s5,20(sp)
    1312:	8a32                	mv	s4,a2
    1314:	8aae                	mv	s5,a1
    1316:	89b6                	mv	s3,a3
    1318:	4601                	li	a2,0
    131a:	04800693          	li	a3,72
    131e:	4581                	li	a1,0
    1320:	d606                	sw	ra,44(sp)
    1322:	d422                	sw	s0,40(sp)
    1324:	d226                	sw	s1,36(sp)
    1326:	d04a                	sw	s2,32(sp)
    1328:	c046                	sw	a7,0(sp)
    132a:	c242                	sw	a6,4(sp)
    132c:	c43e                	sw	a5,8(sp)
    132e:	c63a                	sw	a4,12(sp)
    1330:	03014483          	lbu	s1,48(sp)
    1334:	03414903          	lbu	s2,52(sp)
    1338:	03814403          	lbu	s0,56(sp)
    133c:	2281                	jal	147c <gpio_init>
    133e:	8556                	mv	a0,s5
    1340:	04800693          	li	a3,72
    1344:	4601                	li	a2,0
    1346:	4581                	li	a1,0
    1348:	2a15                	jal	147c <gpio_init>
    134a:	8552                	mv	a0,s4
    134c:	04800693          	li	a3,72
    1350:	4601                	li	a2,0
    1352:	4581                	li	a1,0
    1354:	2225                	jal	147c <gpio_init>
    1356:	854e                	mv	a0,s3
    1358:	04800693          	li	a3,72
    135c:	4601                	li	a2,0
    135e:	4581                	li	a1,0
    1360:	2a31                	jal	147c <gpio_init>
    1362:	4732                	lw	a4,12(sp)
    1364:	04800693          	li	a3,72
    1368:	4601                	li	a2,0
    136a:	853a                	mv	a0,a4
    136c:	4581                	li	a1,0
    136e:	2239                	jal	147c <gpio_init>
    1370:	47a2                	lw	a5,8(sp)
    1372:	04800693          	li	a3,72
    1376:	4601                	li	a2,0
    1378:	853e                	mv	a0,a5
    137a:	4581                	li	a1,0
    137c:	2201                	jal	147c <gpio_init>
    137e:	4812                	lw	a6,4(sp)
    1380:	04800693          	li	a3,72
    1384:	4601                	li	a2,0
    1386:	8542                	mv	a0,a6
    1388:	4581                	li	a1,0
    138a:	28cd                	jal	147c <gpio_init>
    138c:	4882                	lw	a7,0(sp)
    138e:	04800693          	li	a3,72
    1392:	4601                	li	a2,0
    1394:	8546                	mv	a0,a7
    1396:	4581                	li	a1,0
    1398:	20d5                	jal	147c <gpio_init>
    139a:	854a                	mv	a0,s2
    139c:	04800693          	li	a3,72
    13a0:	4601                	li	a2,0
    13a2:	4581                	li	a1,0
    13a4:	28e1                	jal	147c <gpio_init>
    13a6:	8526                	mv	a0,s1
    13a8:	04800693          	li	a3,72
    13ac:	4601                	li	a2,0
    13ae:	4581                	li	a1,0
    13b0:	20f1                	jal	147c <gpio_init>
    13b2:	8522                	mv	a0,s0
    13b4:	5422                	lw	s0,40(sp)
    13b6:	50b2                	lw	ra,44(sp)
    13b8:	5492                	lw	s1,36(sp)
    13ba:	5902                	lw	s2,32(sp)
    13bc:	49f2                	lw	s3,28(sp)
    13be:	4a62                	lw	s4,24(sp)
    13c0:	4ad2                	lw	s5,20(sp)
    13c2:	04800693          	li	a3,72
    13c6:	4601                	li	a2,0
    13c8:	4581                	li	a1,0
    13ca:	6145                	addi	sp,sp,48
    13cc:	a845                	j	147c <gpio_init>

000013ce <dvp_camera_init>:
    13ce:	1101                	addi	sp,sp,-32
    13d0:	cc22                	sw	s0,24(sp)
    13d2:	ca26                	sw	s1,20(sp)
    13d4:	842e                	mv	s0,a1
    13d6:	84aa                	mv	s1,a0
    13d8:	4585                	li	a1,1
    13da:	6509                	lui	a0,0x2
    13dc:	ce06                	sw	ra,28(sp)
    13de:	c632                	sw	a2,12(sp)
    13e0:	c436                	sw	a3,8(sp)
    13e2:	786010ef          	jal	ra,2b68 <RCC_AHBPeriphClockCmd>
    13e6:	500507b7          	lui	a5,0x50050
    13ea:	0007c703          	lbu	a4,0(a5) # 50050000 <_eusrstack+0x30048000>
    13ee:	05600513          	li	a0,86
    13f2:	458d                	li	a1,3
    13f4:	0cf77713          	andi	a4,a4,207
    13f8:	00e78023          	sb	a4,0(a5)
    13fc:	0007c703          	lbu	a4,0(a5)
    1400:	04276713          	ori	a4,a4,66
    1404:	00e78023          	sb	a4,0(a5)
    1408:	0017c703          	lbu	a4,1(a5)
    140c:	0f977713          	andi	a4,a4,249
    1410:	00e780a3          	sb	a4,1(a5)
    1414:	46a2                	lw	a3,8(sp)
    1416:	4632                	lw	a2,12(sp)
    1418:	00d79223          	sh	a3,4(a5)
    141c:	00c79323          	sh	a2,6(a5)
    1420:	c784                	sw	s1,8(a5)
    1422:	c7c0                	sw	s0,12(a5)
    1424:	0017c703          	lbu	a4,1(a5)
    1428:	03f77713          	andi	a4,a4,63
    142c:	00e780a3          	sb	a4,1(a5)
    1430:	0017c703          	lbu	a4,1(a5)
    1434:	0ff77713          	andi	a4,a4,255
    1438:	00e780a3          	sb	a4,1(a5)
    143c:	0017c703          	lbu	a4,1(a5)
    1440:	01076713          	ori	a4,a4,16
    1444:	00e780a3          	sb	a4,1(a5)
    1448:	0027c703          	lbu	a4,2(a5)
    144c:	00476713          	ori	a4,a4,4
    1450:	00e78123          	sb	a4,2(a5)
    1454:	0017c703          	lbu	a4,1(a5)
    1458:	00176713          	ori	a4,a4,1
    145c:	00e780a3          	sb	a4,1(a5)
    1460:	0007c703          	lbu	a4,0(a5)
    1464:	00176713          	ori	a4,a4,1
    1468:	00e78023          	sb	a4,0(a5)
    146c:	2299                	jal	15b2 <interrupt_set_priority>
    146e:	4462                	lw	s0,24(sp)
    1470:	40f2                	lw	ra,28(sp)
    1472:	44d2                	lw	s1,20(sp)
    1474:	05600513          	li	a0,86
    1478:	6105                	addi	sp,sp,32
    147a:	a211                	j	157e <interrupt_enable>

0000147c <gpio_init>:
    147c:	0ff00793          	li	a5,255
    1480:	0cf50b63          	beq	a0,a5,1556 <gpio_init+0xda>
    1484:	7179                	addi	sp,sp,-48
    1486:	d422                	sw	s0,40(sp)
    1488:	00555413          	srli	s0,a0,0x5
    148c:	d226                	sw	s1,36(sp)
    148e:	d04a                	sw	s2,32(sp)
    1490:	ce4e                	sw	s3,28(sp)
    1492:	cc52                	sw	s4,24(sp)
    1494:	d606                	sw	ra,44(sp)
    1496:	881d                	andi	s0,s0,7
    1498:	00f57493          	andi	s1,a0,15
    149c:	8936                	mv	s2,a3
    149e:	8a32                	mv	s4,a2
    14a0:	89ae                	mv	s3,a1
    14a2:	e035                	bnez	s0,1506 <gpio_init+0x8a>
    14a4:	4585                	li	a1,1
    14a6:	4511                	li	a0,4
    14a8:	6de010ef          	jal	ra,2b86 <RCC_APB2PeriphClockCmd>
    14ac:	4785                	li	a5,1
    14ae:	009794b3          	sll	s1,a5,s1
    14b2:	04c2                	slli	s1,s1,0x10
    14b4:	80c1                	srli	s1,s1,0x10
    14b6:	00911223          	sh	s1,4(sp)
    14ba:	00f99963          	bne	s3,a5,14cc <gpio_init+0x50>
    14be:	01091793          	slli	a5,s2,0x10
    14c2:	83c1                	srli	a5,a5,0x10
    14c4:	83a1                	srli	a5,a5,0x8
    14c6:	e391                	bnez	a5,14ca <gpio_init+0x4e>
    14c8:	478d                	li	a5,3
    14ca:	c43e                	sw	a5,8(sp)
    14cc:	6795                	lui	a5,0x5
    14ce:	54878793          	addi	a5,a5,1352 # 5548 <GPION>
    14d2:	040a                	slli	s0,s0,0x2
    14d4:	943e                	add	s0,s0,a5
    14d6:	4000                	lw	s0,0(s0)
    14d8:	0ff97913          	andi	s2,s2,255
    14dc:	004c                	addi	a1,sp,4
    14de:	8522                	mv	a0,s0
    14e0:	c64a                	sw	s2,12(sp)
    14e2:	35c010ef          	jal	ra,283e <GPIO_Init>
    14e6:	4785                	li	a5,1
    14e8:	00f99763          	bne	s3,a5,14f6 <gpio_init+0x7a>
    14ec:	8652                	mv	a2,s4
    14ee:	85a6                	mv	a1,s1
    14f0:	8522                	mv	a0,s0
    14f2:	40e010ef          	jal	ra,2900 <GPIO_WriteBit>
    14f6:	50b2                	lw	ra,44(sp)
    14f8:	5422                	lw	s0,40(sp)
    14fa:	5492                	lw	s1,36(sp)
    14fc:	5902                	lw	s2,32(sp)
    14fe:	49f2                	lw	s3,28(sp)
    1500:	4a62                	lw	s4,24(sp)
    1502:	6145                	addi	sp,sp,48
    1504:	8082                	ret
    1506:	4785                	li	a5,1
    1508:	00f41563          	bne	s0,a5,1512 <gpio_init+0x96>
    150c:	4585                	li	a1,1
    150e:	4521                	li	a0,8
    1510:	bf61                	j	14a8 <gpio_init+0x2c>
    1512:	4789                	li	a5,2
    1514:	00f41563          	bne	s0,a5,151e <gpio_init+0xa2>
    1518:	4585                	li	a1,1
    151a:	4541                	li	a0,16
    151c:	b771                	j	14a8 <gpio_init+0x2c>
    151e:	478d                	li	a5,3
    1520:	00f41663          	bne	s0,a5,152c <gpio_init+0xb0>
    1524:	4585                	li	a1,1
    1526:	02000513          	li	a0,32
    152a:	bfbd                	j	14a8 <gpio_init+0x2c>
    152c:	4791                	li	a5,4
    152e:	00f41663          	bne	s0,a5,153a <gpio_init+0xbe>
    1532:	4585                	li	a1,1
    1534:	04000513          	li	a0,64
    1538:	bf85                	j	14a8 <gpio_init+0x2c>
    153a:	4795                	li	a5,5
    153c:	00f41663          	bne	s0,a5,1548 <gpio_init+0xcc>
    1540:	4585                	li	a1,1
    1542:	08000513          	li	a0,128
    1546:	b78d                	j	14a8 <gpio_init+0x2c>
    1548:	4799                	li	a5,6
    154a:	f6f411e3          	bne	s0,a5,14ac <gpio_init+0x30>
    154e:	4585                	li	a1,1
    1550:	10000513          	li	a0,256
    1554:	bf91                	j	14a8 <gpio_init+0x2c>
    1556:	8082                	ret

00001558 <gpio_bit_output>:
    1558:	00555793          	srli	a5,a0,0x5
    155c:	00279713          	slli	a4,a5,0x2
    1560:	6795                	lui	a5,0x5
    1562:	54878793          	addi	a5,a5,1352 # 5548 <GPION>
    1566:	97ba                	add	a5,a5,a4
    1568:	4398                	lw	a4,0(a5)
    156a:	00f57793          	andi	a5,a0,15
    156e:	4505                	li	a0,1
    1570:	00f51533          	sll	a0,a0,a5
    1574:	c199                	beqz	a1,157a <gpio_bit_output+0x22>
    1576:	cb08                	sw	a0,16(a4)
    1578:	8082                	ret
    157a:	cb48                	sw	a0,20(a4)
    157c:	8082                	ret

0000157e <interrupt_enable>:
    157e:	00555793          	srli	a5,a0,0x5
    1582:	4705                	li	a4,1
    1584:	04078793          	addi	a5,a5,64
    1588:	00a71533          	sll	a0,a4,a0
    158c:	078a                	slli	a5,a5,0x2
    158e:	e000e737          	lui	a4,0xe000e
    1592:	97ba                	add	a5,a5,a4
    1594:	c388                	sw	a0,0(a5)
    1596:	8082                	ret

00001598 <interrupt_disable>:
    1598:	00555793          	srli	a5,a0,0x5
    159c:	4705                	li	a4,1
    159e:	06078793          	addi	a5,a5,96
    15a2:	00a71533          	sll	a0,a4,a0
    15a6:	078a                	slli	a5,a5,0x2
    15a8:	e000e737          	lui	a4,0xe000e
    15ac:	97ba                	add	a5,a5,a4
    15ae:	c388                	sw	a0,0(a5)
    15b0:	8082                	ret

000015b2 <interrupt_set_priority>:
    15b2:	e000e7b7          	lui	a5,0xe000e
    15b6:	953e                	add	a0,a0,a5
    15b8:	40b50023          	sb	a1,1024(a0) # 2400 <uart_init+0x10c>
    15bc:	8082                	ret

000015be <interrupt_global_enable>:
    15be:	8082                	ret

000015c0 <interrupt_global_disable>:
    15c0:	8082                	ret

000015c2 <nvic_init>:
    15c2:	1101                	addi	sp,sp,-32
    15c4:	00a10423          	sb	a0,8(sp)
    15c8:	0028                	addi	a0,sp,8
    15ca:	ce06                	sw	ra,28(sp)
    15cc:	00b104a3          	sb	a1,9(sp)
    15d0:	00c10523          	sb	a2,10(sp)
    15d4:	c636                	sw	a3,12(sp)
    15d6:	3ba010ef          	jal	ra,2990 <NVIC_Init>
    15da:	40f2                	lw	ra,28(sp)
    15dc:	6105                	addi	sp,sp,32
    15de:	8082                	ret

000015e0 <pwm_duty>:
    15e0:	00855793          	srli	a5,a0,0x8
    15e4:	6715                	lui	a4,0x5
    15e6:	56870713          	addi	a4,a4,1384 # 5568 <TIMERN>
    15ea:	078a                	slli	a5,a5,0x2
    15ec:	97ba                	add	a5,a5,a4
    15ee:	4398                	lw	a4,0(a5)
    15f0:	890d                	andi	a0,a0,3
    15f2:	050a                	slli	a0,a0,0x2
    15f4:	02c75783          	lhu	a5,44(a4)
    15f8:	953a                	add	a0,a0,a4
    15fa:	02f585b3          	mul	a1,a1,a5
    15fe:	6789                	lui	a5,0x2
    1600:	71078793          	addi	a5,a5,1808 # 2710 <handle_reset+0x5e>
    1604:	02f5d5b3          	divu	a1,a1,a5
    1608:	05c2                	slli	a1,a1,0x10
    160a:	81c1                	srli	a1,a1,0x10
    160c:	d94c                	sw	a1,52(a0)
    160e:	8082                	ret

00001610 <pwm_gpio_init>:
    1610:	e519                	bnez	a0,161e <pwm_gpio_init+0xe>
    1612:	31800693          	li	a3,792
    1616:	4601                	li	a2,0
    1618:	4585                	li	a1,1
    161a:	4521                	li	a0,8
    161c:	b585                	j	147c <gpio_init>
    161e:	4785                	li	a5,1
    1620:	00f51863          	bne	a0,a5,1630 <pwm_gpio_init+0x20>
    1624:	31800693          	li	a3,792
    1628:	4601                	li	a2,0
    162a:	4585                	li	a1,1
    162c:	4525                	li	a0,9
    162e:	b7fd                	j	161c <pwm_gpio_init+0xc>
    1630:	4789                	li	a5,2
    1632:	00f51863          	bne	a0,a5,1642 <pwm_gpio_init+0x32>
    1636:	31800693          	li	a3,792
    163a:	4601                	li	a2,0
    163c:	4585                	li	a1,1
    163e:	4529                	li	a0,10
    1640:	bff1                	j	161c <pwm_gpio_init+0xc>
    1642:	478d                	li	a5,3
    1644:	00f51863          	bne	a0,a5,1654 <pwm_gpio_init+0x44>
    1648:	31800693          	li	a3,792
    164c:	4601                	li	a2,0
    164e:	4585                	li	a1,1
    1650:	452d                	li	a0,11
    1652:	b7e9                	j	161c <pwm_gpio_init+0xc>
    1654:	47c1                	li	a5,16
    1656:	00f51963          	bne	a0,a5,1668 <pwm_gpio_init+0x58>
    165a:	31800693          	li	a3,792
    165e:	4601                	li	a2,0
    1660:	4585                	li	a1,1
    1662:	08900513          	li	a0,137
    1666:	bf5d                	j	161c <pwm_gpio_init+0xc>
    1668:	47c5                	li	a5,17
    166a:	00f51963          	bne	a0,a5,167c <pwm_gpio_init+0x6c>
    166e:	31800693          	li	a3,792
    1672:	4601                	li	a2,0
    1674:	4585                	li	a1,1
    1676:	08b00513          	li	a0,139
    167a:	b74d                	j	161c <pwm_gpio_init+0xc>
    167c:	47c9                	li	a5,18
    167e:	00f51963          	bne	a0,a5,1690 <pwm_gpio_init+0x80>
    1682:	31800693          	li	a3,792
    1686:	4601                	li	a2,0
    1688:	4585                	li	a1,1
    168a:	08d00513          	li	a0,141
    168e:	b779                	j	161c <pwm_gpio_init+0xc>
    1690:	47cd                	li	a5,19
    1692:	00f51963          	bne	a0,a5,16a4 <pwm_gpio_init+0x94>
    1696:	31800693          	li	a3,792
    169a:	4601                	li	a2,0
    169c:	4585                	li	a1,1
    169e:	08e00513          	li	a0,142
    16a2:	bfad                	j	161c <pwm_gpio_init+0xc>
    16a4:	10000793          	li	a5,256
    16a8:	00f51863          	bne	a0,a5,16b8 <pwm_gpio_init+0xa8>
    16ac:	31800693          	li	a3,792
    16b0:	4601                	li	a2,0
    16b2:	4585                	li	a1,1
    16b4:	4501                	li	a0,0
    16b6:	b79d                	j	161c <pwm_gpio_init+0xc>
    16b8:	10100793          	li	a5,257
    16bc:	00f51863          	bne	a0,a5,16cc <pwm_gpio_init+0xbc>
    16c0:	31800693          	li	a3,792
    16c4:	4601                	li	a2,0
    16c6:	4585                	li	a1,1
    16c8:	4505                	li	a0,1
    16ca:	bf89                	j	161c <pwm_gpio_init+0xc>
    16cc:	10200793          	li	a5,258
    16d0:	00f51863          	bne	a0,a5,16e0 <pwm_gpio_init+0xd0>
    16d4:	31800693          	li	a3,792
    16d8:	4601                	li	a2,0
    16da:	4585                	li	a1,1
    16dc:	4509                	li	a0,2
    16de:	bf3d                	j	161c <pwm_gpio_init+0xc>
    16e0:	10300793          	li	a5,259
    16e4:	00f51863          	bne	a0,a5,16f4 <pwm_gpio_init+0xe4>
    16e8:	31800693          	li	a3,792
    16ec:	4601                	li	a2,0
    16ee:	4585                	li	a1,1
    16f0:	450d                	li	a0,3
    16f2:	b72d                	j	161c <pwm_gpio_init+0xc>
    16f4:	11000793          	li	a5,272
    16f8:	00f51863          	bne	a0,a5,1708 <pwm_gpio_init+0xf8>
    16fc:	31800693          	li	a3,792
    1700:	4601                	li	a2,0
    1702:	4585                	li	a1,1
    1704:	453d                	li	a0,15
    1706:	bf19                	j	161c <pwm_gpio_init+0xc>
    1708:	11100793          	li	a5,273
    170c:	00f51963          	bne	a0,a5,171e <pwm_gpio_init+0x10e>
    1710:	31800693          	li	a3,792
    1714:	4601                	li	a2,0
    1716:	4585                	li	a1,1
    1718:	02300513          	li	a0,35
    171c:	b701                	j	161c <pwm_gpio_init+0xc>
    171e:	11200793          	li	a5,274
    1722:	00f51963          	bne	a0,a5,1734 <pwm_gpio_init+0x124>
    1726:	31800693          	li	a3,792
    172a:	4601                	li	a2,0
    172c:	4585                	li	a1,1
    172e:	02a00513          	li	a0,42
    1732:	b5ed                	j	161c <pwm_gpio_init+0xc>
    1734:	11300793          	li	a5,275
    1738:	00f51963          	bne	a0,a5,174a <pwm_gpio_init+0x13a>
    173c:	31800693          	li	a3,792
    1740:	4601                	li	a2,0
    1742:	4585                	li	a1,1
    1744:	02b00513          	li	a0,43
    1748:	bdd1                	j	161c <pwm_gpio_init+0xc>
    174a:	20000793          	li	a5,512
    174e:	00f51863          	bne	a0,a5,175e <pwm_gpio_init+0x14e>
    1752:	31800693          	li	a3,792
    1756:	4601                	li	a2,0
    1758:	4585                	li	a1,1
    175a:	4519                	li	a0,6
    175c:	b5c1                	j	161c <pwm_gpio_init+0xc>
    175e:	20100793          	li	a5,513
    1762:	00f51863          	bne	a0,a5,1772 <pwm_gpio_init+0x162>
    1766:	31800693          	li	a3,792
    176a:	4601                	li	a2,0
    176c:	4585                	li	a1,1
    176e:	451d                	li	a0,7
    1770:	b575                	j	161c <pwm_gpio_init+0xc>
    1772:	20200793          	li	a5,514
    1776:	00f51963          	bne	a0,a5,1788 <pwm_gpio_init+0x178>
    177a:	31800693          	li	a3,792
    177e:	4601                	li	a2,0
    1780:	4585                	li	a1,1
    1782:	02000513          	li	a0,32
    1786:	bd59                	j	161c <pwm_gpio_init+0xc>
    1788:	20300793          	li	a5,515
    178c:	00f51963          	bne	a0,a5,179e <pwm_gpio_init+0x18e>
    1790:	31800693          	li	a3,792
    1794:	4601                	li	a2,0
    1796:	4585                	li	a1,1
    1798:	02100513          	li	a0,33
    179c:	b541                	j	161c <pwm_gpio_init+0xc>
    179e:	21000793          	li	a5,528
    17a2:	00f51963          	bne	a0,a5,17b4 <pwm_gpio_init+0x1a4>
    17a6:	31800693          	li	a3,792
    17aa:	4601                	li	a2,0
    17ac:	4585                	li	a1,1
    17ae:	04600513          	li	a0,70
    17b2:	b5ad                	j	161c <pwm_gpio_init+0xc>
    17b4:	21100793          	li	a5,529
    17b8:	00f51963          	bne	a0,a5,17ca <pwm_gpio_init+0x1ba>
    17bc:	31800693          	li	a3,792
    17c0:	4601                	li	a2,0
    17c2:	4585                	li	a1,1
    17c4:	04700513          	li	a0,71
    17c8:	bd91                	j	161c <pwm_gpio_init+0xc>
    17ca:	21200793          	li	a5,530
    17ce:	00f51963          	bne	a0,a5,17e0 <pwm_gpio_init+0x1d0>
    17d2:	31800693          	li	a3,792
    17d6:	4601                	li	a2,0
    17d8:	4585                	li	a1,1
    17da:	04800513          	li	a0,72
    17de:	bd3d                	j	161c <pwm_gpio_init+0xc>
    17e0:	21300793          	li	a5,531
    17e4:	00f51963          	bne	a0,a5,17f6 <pwm_gpio_init+0x1e6>
    17e8:	31800693          	li	a3,792
    17ec:	4601                	li	a2,0
    17ee:	4585                	li	a1,1
    17f0:	04900513          	li	a0,73
    17f4:	b525                	j	161c <pwm_gpio_init+0xc>
    17f6:	22000793          	li	a5,544
    17fa:	00f51963          	bne	a0,a5,180c <pwm_gpio_init+0x1fc>
    17fe:	31800693          	li	a3,792
    1802:	4601                	li	a2,0
    1804:	4585                	li	a1,1
    1806:	02400513          	li	a0,36
    180a:	bd09                	j	161c <pwm_gpio_init+0xc>
    180c:	22100793          	li	a5,545
    1810:	00f51963          	bne	a0,a5,1822 <pwm_gpio_init+0x212>
    1814:	31800693          	li	a3,792
    1818:	4601                	li	a2,0
    181a:	4585                	li	a1,1
    181c:	02500513          	li	a0,37
    1820:	bbf5                	j	161c <pwm_gpio_init+0xc>
    1822:	30000793          	li	a5,768
    1826:	00f51963          	bne	a0,a5,1838 <pwm_gpio_init+0x228>
    182a:	31800693          	li	a3,792
    182e:	4601                	li	a2,0
    1830:	4585                	li	a1,1
    1832:	02600513          	li	a0,38
    1836:	b3dd                	j	161c <pwm_gpio_init+0xc>
    1838:	30100793          	li	a5,769
    183c:	00f51963          	bne	a0,a5,184e <pwm_gpio_init+0x23e>
    1840:	31800693          	li	a3,792
    1844:	4601                	li	a2,0
    1846:	4585                	li	a1,1
    1848:	02700513          	li	a0,39
    184c:	bbc1                	j	161c <pwm_gpio_init+0xc>
    184e:	30200793          	li	a5,770
    1852:	00f51963          	bne	a0,a5,1864 <pwm_gpio_init+0x254>
    1856:	31800693          	li	a3,792
    185a:	4601                	li	a2,0
    185c:	4585                	li	a1,1
    185e:	02800513          	li	a0,40
    1862:	bb6d                	j	161c <pwm_gpio_init+0xc>
    1864:	30300793          	li	a5,771
    1868:	00f51963          	bne	a0,a5,187a <pwm_gpio_init+0x26a>
    186c:	31800693          	li	a3,792
    1870:	4601                	li	a2,0
    1872:	4585                	li	a1,1
    1874:	02900513          	li	a0,41
    1878:	b355                	j	161c <pwm_gpio_init+0xc>
    187a:	31000793          	li	a5,784
    187e:	00f51963          	bne	a0,a5,1890 <pwm_gpio_init+0x280>
    1882:	31800693          	li	a3,792
    1886:	4601                	li	a2,0
    1888:	4585                	li	a1,1
    188a:	06c00513          	li	a0,108
    188e:	b379                	j	161c <pwm_gpio_init+0xc>
    1890:	31100793          	li	a5,785
    1894:	00f51963          	bne	a0,a5,18a6 <pwm_gpio_init+0x296>
    1898:	31800693          	li	a3,792
    189c:	4601                	li	a2,0
    189e:	4585                	li	a1,1
    18a0:	06d00513          	li	a0,109
    18a4:	bba5                	j	161c <pwm_gpio_init+0xc>
    18a6:	31200793          	li	a5,786
    18aa:	00f51963          	bne	a0,a5,18bc <pwm_gpio_init+0x2ac>
    18ae:	31800693          	li	a3,792
    18b2:	4601                	li	a2,0
    18b4:	4585                	li	a1,1
    18b6:	06e00513          	li	a0,110
    18ba:	b38d                	j	161c <pwm_gpio_init+0xc>
    18bc:	31300793          	li	a5,787
    18c0:	00f51963          	bne	a0,a5,18d2 <pwm_gpio_init+0x2c2>
    18c4:	31800693          	li	a3,792
    18c8:	4601                	li	a2,0
    18ca:	4585                	li	a1,1
    18cc:	06f00513          	li	a0,111
    18d0:	b3b1                	j	161c <pwm_gpio_init+0xc>
    18d2:	40000793          	li	a5,1024
    18d6:	dcf50be3          	beq	a0,a5,16ac <pwm_gpio_init+0x9c>
    18da:	40100793          	li	a5,1025
    18de:	def501e3          	beq	a0,a5,16c0 <pwm_gpio_init+0xb0>
    18e2:	40200793          	li	a5,1026
    18e6:	def507e3          	beq	a0,a5,16d4 <pwm_gpio_init+0xc4>
    18ea:	40300793          	li	a5,1027
    18ee:	def50de3          	beq	a0,a5,16e8 <pwm_gpio_init+0xd8>
    18f2:	70000793          	li	a5,1792
    18f6:	eaf508e3          	beq	a0,a5,17a6 <pwm_gpio_init+0x196>
    18fa:	70100793          	li	a5,1793
    18fe:	eaf50fe3          	beq	a0,a5,17bc <pwm_gpio_init+0x1ac>
    1902:	70200793          	li	a5,1794
    1906:	ecf506e3          	beq	a0,a5,17d2 <pwm_gpio_init+0x1c2>
    190a:	70300793          	li	a5,1795
    190e:	ecf50de3          	beq	a0,a5,17e8 <pwm_gpio_init+0x1d8>
    1912:	71000793          	li	a5,1808
    1916:	f0f50ae3          	beq	a0,a5,182a <pwm_gpio_init+0x21a>
    191a:	71100793          	li	a5,1809
    191e:	f2f501e3          	beq	a0,a5,1840 <pwm_gpio_init+0x230>
    1922:	71200793          	li	a5,1810
    1926:	f2f508e3          	beq	a0,a5,1856 <pwm_gpio_init+0x246>
    192a:	71300793          	li	a5,1811
    192e:	00f51963          	bne	a0,a5,1940 <pwm_gpio_init+0x330>
    1932:	31800693          	li	a3,792
    1936:	4601                	li	a2,0
    1938:	4585                	li	a1,1
    193a:	04d00513          	li	a0,77
    193e:	b9f9                	j	161c <pwm_gpio_init+0xc>
    1940:	80050793          	addi	a5,a0,-2048
    1944:	d80788e3          	beqz	a5,16d4 <pwm_gpio_init+0xc4>
    1948:	6785                	lui	a5,0x1
    194a:	80178713          	addi	a4,a5,-2047 # 801 <__stack_size+0x1>
    194e:	d8e50de3          	beq	a0,a4,16e8 <pwm_gpio_init+0xd8>
    1952:	80278713          	addi	a4,a5,-2046
    1956:	00e51863          	bne	a0,a4,1966 <pwm_gpio_init+0x356>
    195a:	31800693          	li	a3,792
    195e:	4601                	li	a2,0
    1960:	4585                	li	a1,1
    1962:	4511                	li	a0,4
    1964:	b965                	j	161c <pwm_gpio_init+0xc>
    1966:	80378793          	addi	a5,a5,-2045
    196a:	00f51963          	bne	a0,a5,197c <pwm_gpio_init+0x36c>
    196e:	31800693          	li	a3,792
    1972:	4601                	li	a2,0
    1974:	4585                	li	a1,1
    1976:	04400513          	li	a0,68
    197a:	b14d                	j	161c <pwm_gpio_init+0xc>
    197c:	6785                	lui	a5,0x1
    197e:	81078713          	addi	a4,a5,-2032 # 810 <__stack_size+0x10>
    1982:	00e51963          	bne	a0,a4,1994 <pwm_gpio_init+0x384>
    1986:	31800693          	li	a3,792
    198a:	4601                	li	a2,0
    198c:	4585                	li	a1,1
    198e:	06900513          	li	a0,105
    1992:	b169                	j	161c <pwm_gpio_init+0xc>
    1994:	81178713          	addi	a4,a5,-2031
    1998:	00e51963          	bne	a0,a4,19aa <pwm_gpio_init+0x39a>
    199c:	31800693          	li	a3,792
    19a0:	4601                	li	a2,0
    19a2:	4585                	li	a1,1
    19a4:	06b00513          	li	a0,107
    19a8:	b995                	j	161c <pwm_gpio_init+0xc>
    19aa:	81278713          	addi	a4,a5,-2030
    19ae:	eee505e3          	beq	a0,a4,1898 <pwm_gpio_init+0x288>
    19b2:	81378713          	addi	a4,a5,-2029
    19b6:	f0e507e3          	beq	a0,a4,18c4 <pwm_gpio_init+0x2b4>
    19ba:	90078713          	addi	a4,a5,-1792
    19be:	e8e50ce3          	beq	a0,a4,1856 <pwm_gpio_init+0x246>
    19c2:	90178713          	addi	a4,a5,-1791
    19c6:	eae503e3          	beq	a0,a4,186c <pwm_gpio_init+0x25c>
    19ca:	90278713          	addi	a4,a5,-1790
    19ce:	00e51963          	bne	a0,a4,19e0 <pwm_gpio_init+0x3d0>
    19d2:	31800693          	li	a3,792
    19d6:	4601                	li	a2,0
    19d8:	4585                	li	a1,1
    19da:	04300513          	li	a0,67
    19de:	b93d                	j	161c <pwm_gpio_init+0xc>
    19e0:	90378713          	addi	a4,a5,-1789
    19e4:	00e51963          	bne	a0,a4,19f6 <pwm_gpio_init+0x3e6>
    19e8:	31800693          	li	a3,792
    19ec:	4601                	li	a2,0
    19ee:	4585                	li	a1,1
    19f0:	04b00513          	li	a0,75
    19f4:	b125                	j	161c <pwm_gpio_init+0xc>
    19f6:	91078713          	addi	a4,a5,-1776
    19fa:	00e51963          	bne	a0,a4,1a0c <pwm_gpio_init+0x3fc>
    19fe:	31800693          	li	a3,792
    1a02:	4601                	li	a2,0
    1a04:	4585                	li	a1,1
    1a06:	06100513          	li	a0,97
    1a0a:	b909                	j	161c <pwm_gpio_init+0xc>
    1a0c:	91178793          	addi	a5,a5,-1775
    1a10:	00f51963          	bne	a0,a5,1a22 <pwm_gpio_init+0x412>
    1a14:	31800693          	li	a3,792
    1a18:	4601                	li	a2,0
    1a1a:	4585                	li	a1,1
    1a1c:	06300513          	li	a0,99
    1a20:	bef5                	j	161c <pwm_gpio_init+0xc>
    1a22:	6785                	lui	a5,0x1
    1a24:	91278713          	addi	a4,a5,-1774 # 912 <ips114_set_region+0xf2>
    1a28:	00e51963          	bne	a0,a4,1a3a <pwm_gpio_init+0x42a>
    1a2c:	31800693          	li	a3,792
    1a30:	4601                	li	a2,0
    1a32:	4585                	li	a1,1
    1a34:	06500513          	li	a0,101
    1a38:	b6d5                	j	161c <pwm_gpio_init+0xc>
    1a3a:	91378713          	addi	a4,a5,-1773
    1a3e:	00e51963          	bne	a0,a4,1a50 <pwm_gpio_init+0x440>
    1a42:	31800693          	li	a3,792
    1a46:	4601                	li	a2,0
    1a48:	4585                	li	a1,1
    1a4a:	06700513          	li	a0,103
    1a4e:	b6f9                	j	161c <pwm_gpio_init+0xc>
    1a50:	92078713          	addi	a4,a5,-1760
    1a54:	cae50ee3          	beq	a0,a4,1710 <pwm_gpio_init+0x100>
    1a58:	92178713          	addi	a4,a5,-1759
    1a5c:	dae501e3          	beq	a0,a4,17fe <pwm_gpio_init+0x1ee>
    1a60:	92278713          	addi	a4,a5,-1758
    1a64:	dae508e3          	beq	a0,a4,1814 <pwm_gpio_init+0x204>
    1a68:	92378793          	addi	a5,a5,-1757
    1a6c:	00f51963          	bne	a0,a5,1a7e <pwm_gpio_init+0x46e>
    1a70:	31800693          	li	a3,792
    1a74:	4601                	li	a2,0
    1a76:	4585                	li	a1,1
    1a78:	04f00513          	li	a0,79
    1a7c:	b645                	j	161c <pwm_gpio_init+0xc>
    1a7e:	8082                	ret

00001a80 <pwm_init>:
    1a80:	7139                	addi	sp,sp,-64
    1a82:	de06                	sw	ra,60(sp)
    1a84:	dc22                	sw	s0,56(sp)
    1a86:	da26                	sw	s1,52(sp)
    1a88:	842a                	mv	s0,a0
    1a8a:	d84a                	sw	s2,48(sp)
    1a8c:	d64e                	sw	s3,44(sp)
    1a8e:	c62e                	sw	a1,12(sp)
    1a90:	c432                	sw	a2,8(sp)
    1a92:	8936                	mv	s2,a3
    1a94:	b7dff0ef          	jal	ra,1610 <pwm_gpio_init>
    1a98:	45b2                	lw	a1,12(sp)
    1a9a:	8181a783          	lw	a5,-2024(gp) # 20000118 <SystemCoreClock>
    1a9e:	4622                	lw	a2,8(sp)
    1aa0:	00845993          	srli	s3,s0,0x8
    1aa4:	02b7d733          	divu	a4,a5,a1
    1aa8:	854e                	mv	a0,s3
    1aaa:	8341                	srli	a4,a4,0x10
    1aac:	00170693          	addi	a3,a4,1
    1ab0:	02b686b3          	mul	a3,a3,a1
    1ab4:	02d7d7b3          	divu	a5,a5,a3
    1ab8:	01079493          	slli	s1,a5,0x10
    1abc:	80c1                	srli	s1,s1,0x10
    1abe:	02c484b3          	mul	s1,s1,a2
    1ac2:	6609                	lui	a2,0x2
    1ac4:	71060613          	addi	a2,a2,1808 # 2710 <handle_reset+0x5e>
    1ac8:	17fd                	addi	a5,a5,-1
    1aca:	01079593          	slli	a1,a5,0x10
    1ace:	81c1                	srli	a1,a1,0x10
    1ad0:	02c4d4b3          	divu	s1,s1,a2
    1ad4:	863a                	mv	a2,a4
    1ad6:	2ed5                	jal	1eca <timbase_init>
    1ad8:	4585                	li	a1,1
    1ada:	4505                	li	a0,1
    1adc:	0aa010ef          	jal	ra,2b86 <RCC_APB2PeriphClockCmd>
    1ae0:	00445793          	srli	a5,s0,0x4
    1ae4:	4705                	li	a4,1
    1ae6:	04c2                	slli	s1,s1,0x10
    1ae8:	80c1                	srli	s1,s1,0x10
    1aea:	06e79463          	bne	a5,a4,1b52 <pwm_init+0xd2>
    1aee:	00160537          	lui	a0,0x160
    1af2:	4585                	li	a1,1
    1af4:	0c050513          	addi	a0,a0,192 # 1600c0 <_data_lma+0x15a91c>
    1af8:	613000ef          	jal	ra,290a <GPIO_PinRemapConfig>
    1afc:	67c1                	lui	a5,0x10
    1afe:	6715                	lui	a4,0x5
    1b00:	06078793          	addi	a5,a5,96 # 10060 <_data_lma+0xa8bc>
    1b04:	00299513          	slli	a0,s3,0x2
    1b08:	56870713          	addi	a4,a4,1384 # 5568 <TIMERN>
    1b0c:	c83e                	sw	a5,16(sp)
    1b0e:	953a                	add	a0,a0,a4
    1b10:	00347793          	andi	a5,s0,3
    1b14:	00911b23          	sh	s1,22(sp)
    1b18:	00011c23          	sh	zero,24(sp)
    1b1c:	00011e23          	sh	zero,28(sp)
    1b20:	4100                	lw	s0,0(a0)
    1b22:	e7e9                	bnez	a5,1bec <pwm_init+0x16c>
    1b24:	080c                	addi	a1,sp,16
    1b26:	8522                	mv	a0,s0
    1b28:	1f0010ef          	jal	ra,2d18 <TIM_OC1Init>
    1b2c:	4585                	li	a1,1
    1b2e:	8522                	mv	a0,s0
    1b30:	4d8010ef          	jal	ra,3008 <TIM_CtrlPWMOutputs>
    1b34:	85ca                	mv	a1,s2
    1b36:	8522                	mv	a0,s0
    1b38:	4e6010ef          	jal	ra,301e <TIM_OC1PreloadConfig>
    1b3c:	8522                	mv	a0,s0
    1b3e:	4585                	li	a1,1
    1b40:	4ac010ef          	jal	ra,2fec <TIM_Cmd>
    1b44:	50f2                	lw	ra,60(sp)
    1b46:	5462                	lw	s0,56(sp)
    1b48:	54d2                	lw	s1,52(sp)
    1b4a:	5942                	lw	s2,48(sp)
    1b4c:	59b2                	lw	s3,44(sp)
    1b4e:	6121                	addi	sp,sp,64
    1b50:	8082                	ret
    1b52:	4745                	li	a4,17
    1b54:	00e79863          	bne	a5,a4,1b64 <pwm_init+0xe4>
    1b58:	00180537          	lui	a0,0x180
    1b5c:	4585                	li	a1,1
    1b5e:	30050513          	addi	a0,a0,768 # 180300 <_data_lma+0x17ab5c>
    1b62:	bf59                	j	1af8 <pwm_init+0x78>
    1b64:	02100713          	li	a4,33
    1b68:	00e79863          	bne	a5,a4,1b78 <pwm_init+0xf8>
    1b6c:	001a1537          	lui	a0,0x1a1
    1b70:	4585                	li	a1,1
    1b72:	c0050513          	addi	a0,a0,-1024 # 1a0c00 <_data_lma+0x19b45c>
    1b76:	b749                	j	1af8 <pwm_init+0x78>
    1b78:	02200713          	li	a4,34
    1b7c:	00e79863          	bne	a5,a4,1b8c <pwm_init+0x10c>
    1b80:	001a1537          	lui	a0,0x1a1
    1b84:	4585                	li	a1,1
    1b86:	80050513          	addi	a0,a0,-2048 # 1a0800 <_data_lma+0x19b05c>
    1b8a:	b7bd                	j	1af8 <pwm_init+0x78>
    1b8c:	03100713          	li	a4,49
    1b90:	00e79563          	bne	a5,a4,1b9a <pwm_init+0x11a>
    1b94:	4585                	li	a1,1
    1b96:	6505                	lui	a0,0x1
    1b98:	b785                	j	1af8 <pwm_init+0x78>
    1b9a:	07100713          	li	a4,113
    1b9e:	00e79963          	bne	a5,a4,1bb0 <pwm_init+0x130>
    1ba2:	40010737          	lui	a4,0x40010
    1ba6:	4f5c                	lw	a5,28(a4)
    1ba8:	0047e793          	ori	a5,a5,4
    1bac:	cf5c                	sw	a5,28(a4)
    1bae:	b7b9                	j	1afc <pwm_init+0x7c>
    1bb0:	08100713          	li	a4,129
    1bb4:	00e79863          	bne	a5,a4,1bc4 <pwm_init+0x144>
    1bb8:	40010737          	lui	a4,0x40010
    1bbc:	4f5c                	lw	a5,28(a4)
    1bbe:	0107e793          	ori	a5,a5,16
    1bc2:	b7ed                	j	1bac <pwm_init+0x12c>
    1bc4:	09100713          	li	a4,145
    1bc8:	00e79863          	bne	a5,a4,1bd8 <pwm_init+0x158>
    1bcc:	40010737          	lui	a4,0x40010
    1bd0:	4f5c                	lw	a5,28(a4)
    1bd2:	0407e793          	ori	a5,a5,64
    1bd6:	bfd9                	j	1bac <pwm_init+0x12c>
    1bd8:	09200713          	li	a4,146
    1bdc:	f2e790e3          	bne	a5,a4,1afc <pwm_init+0x7c>
    1be0:	40010737          	lui	a4,0x40010
    1be4:	4f5c                	lw	a5,28(a4)
    1be6:	0207e793          	ori	a5,a5,32
    1bea:	b7c9                	j	1bac <pwm_init+0x12c>
    1bec:	4705                	li	a4,1
    1bee:	00e79f63          	bne	a5,a4,1c0c <pwm_init+0x18c>
    1bf2:	080c                	addi	a1,sp,16
    1bf4:	8522                	mv	a0,s0
    1bf6:	1c2010ef          	jal	ra,2db8 <TIM_OC2Init>
    1bfa:	8522                	mv	a0,s0
    1bfc:	4585                	li	a1,1
    1bfe:	40a010ef          	jal	ra,3008 <TIM_CtrlPWMOutputs>
    1c02:	85ca                	mv	a1,s2
    1c04:	8522                	mv	a0,s0
    1c06:	42a010ef          	jal	ra,3030 <TIM_OC2PreloadConfig>
    1c0a:	bf0d                	j	1b3c <pwm_init+0xbc>
    1c0c:	4709                	li	a4,2
    1c0e:	080c                	addi	a1,sp,16
    1c10:	8522                	mv	a0,s0
    1c12:	00e79d63          	bne	a5,a4,1c2c <pwm_init+0x1ac>
    1c16:	26e010ef          	jal	ra,2e84 <TIM_OC3Init>
    1c1a:	8522                	mv	a0,s0
    1c1c:	4585                	li	a1,1
    1c1e:	3ea010ef          	jal	ra,3008 <TIM_CtrlPWMOutputs>
    1c22:	85ca                	mv	a1,s2
    1c24:	8522                	mv	a0,s0
    1c26:	424010ef          	jal	ra,304a <TIM_OC3PreloadConfig>
    1c2a:	bf09                	j	1b3c <pwm_init+0xbc>
    1c2c:	322010ef          	jal	ra,2f4e <TIM_OC4Init>
    1c30:	8522                	mv	a0,s0
    1c32:	4585                	li	a1,1
    1c34:	3d4010ef          	jal	ra,3008 <TIM_CtrlPWMOutputs>
    1c38:	85ca                	mv	a1,s2
    1c3a:	8522                	mv	a0,s0
    1c3c:	420010ef          	jal	ra,305c <TIM_OC4PreloadConfig>
    1c40:	bdf5                	j	1b3c <pwm_init+0xbc>

00001c42 <spi_gpio_init>:
    1c42:	1141                	addi	sp,sp,-16
    1c44:	c422                	sw	s0,8(sp)
    1c46:	c226                	sw	s1,4(sp)
    1c48:	c04a                	sw	s2,0(sp)
    1c4a:	c606                	sw	ra,12(sp)
    1c4c:	84ae                	mv	s1,a1
    1c4e:	8432                	mv	s0,a2
    1c50:	8936                	mv	s2,a3
    1c52:	e921                	bnez	a0,1ca2 <spi_gpio_init+0x60>
    1c54:	31800693          	li	a3,792
    1c58:	4605                	li	a2,1
    1c5a:	4585                	li	a1,1
    1c5c:	4515                	li	a0,5
    1c5e:	81fff0ef          	jal	ra,147c <gpio_init>
    1c62:	4789                	li	a5,2
    1c64:	08f49363          	bne	s1,a5,1cea <spi_gpio_init+0xa8>
    1c68:	31800693          	li	a3,792
    1c6c:	4605                	li	a2,1
    1c6e:	4585                	li	a1,1
    1c70:	451d                	li	a0,7
    1c72:	80bff0ef          	jal	ra,147c <gpio_init>
    1c76:	4785                	li	a5,1
    1c78:	0af41d63          	bne	s0,a5,1d32 <spi_gpio_init+0xf0>
    1c7c:	31800693          	li	a3,792
    1c80:	4605                	li	a2,1
    1c82:	4581                	li	a1,0
    1c84:	4519                	li	a0,6
    1c86:	ff6ff0ef          	jal	ra,147c <gpio_init>
    1c8a:	4422                	lw	s0,8(sp)
    1c8c:	40b2                	lw	ra,12(sp)
    1c8e:	4492                	lw	s1,4(sp)
    1c90:	854a                	mv	a0,s2
    1c92:	4902                	lw	s2,0(sp)
    1c94:	31000693          	li	a3,784
    1c98:	4601                	li	a2,0
    1c9a:	4585                	li	a1,1
    1c9c:	0141                	addi	sp,sp,16
    1c9e:	fdeff06f          	j	147c <gpio_init>
    1ca2:	47c1                	li	a5,16
    1ca4:	00f51963          	bne	a0,a5,1cb6 <spi_gpio_init+0x74>
    1ca8:	31800693          	li	a3,792
    1cac:	4605                	li	a2,1
    1cae:	4585                	li	a1,1
    1cb0:	02300513          	li	a0,35
    1cb4:	b76d                	j	1c5e <spi_gpio_init+0x1c>
    1cb6:	02000793          	li	a5,32
    1cba:	00f51963          	bne	a0,a5,1ccc <spi_gpio_init+0x8a>
    1cbe:	31800693          	li	a3,792
    1cc2:	4605                	li	a2,1
    1cc4:	4585                	li	a1,1
    1cc6:	02d00513          	li	a0,45
    1cca:	bf51                	j	1c5e <spi_gpio_init+0x1c>
    1ccc:	03000793          	li	a5,48
    1cd0:	fcf50ce3          	beq	a0,a5,1ca8 <spi_gpio_init+0x66>
    1cd4:	04000793          	li	a5,64
    1cd8:	f8f515e3          	bne	a0,a5,1c62 <spi_gpio_init+0x20>
    1cdc:	31800693          	li	a3,792
    1ce0:	4605                	li	a2,1
    1ce2:	4585                	li	a1,1
    1ce4:	04a00513          	li	a0,74
    1ce8:	bf9d                	j	1c5e <spi_gpio_init+0x1c>
    1cea:	47c9                	li	a5,18
    1cec:	00f49963          	bne	s1,a5,1cfe <spi_gpio_init+0xbc>
    1cf0:	31800693          	li	a3,792
    1cf4:	4605                	li	a2,1
    1cf6:	4585                	li	a1,1
    1cf8:	02500513          	li	a0,37
    1cfc:	bf9d                	j	1c72 <spi_gpio_init+0x30>
    1cfe:	02200793          	li	a5,34
    1d02:	00f49963          	bne	s1,a5,1d14 <spi_gpio_init+0xd2>
    1d06:	31800693          	li	a3,792
    1d0a:	4605                	li	a2,1
    1d0c:	4585                	li	a1,1
    1d0e:	02f00513          	li	a0,47
    1d12:	b785                	j	1c72 <spi_gpio_init+0x30>
    1d14:	03200793          	li	a5,50
    1d18:	fcf48ce3          	beq	s1,a5,1cf0 <spi_gpio_init+0xae>
    1d1c:	04200793          	li	a5,66
    1d20:	f4f49be3          	bne	s1,a5,1c76 <spi_gpio_init+0x34>
    1d24:	31800693          	li	a3,792
    1d28:	4605                	li	a2,1
    1d2a:	4585                	li	a1,1
    1d2c:	04c00513          	li	a0,76
    1d30:	b789                	j	1c72 <spi_gpio_init+0x30>
    1d32:	47c5                	li	a5,17
    1d34:	00f41963          	bne	s0,a5,1d46 <spi_gpio_init+0x104>
    1d38:	31800693          	li	a3,792
    1d3c:	4605                	li	a2,1
    1d3e:	4581                	li	a1,0
    1d40:	02400513          	li	a0,36
    1d44:	b789                	j	1c86 <spi_gpio_init+0x44>
    1d46:	02100793          	li	a5,33
    1d4a:	00f41963          	bne	s0,a5,1d5c <spi_gpio_init+0x11a>
    1d4e:	31800693          	li	a3,792
    1d52:	4605                	li	a2,1
    1d54:	4581                	li	a1,0
    1d56:	02e00513          	li	a0,46
    1d5a:	b735                	j	1c86 <spi_gpio_init+0x44>
    1d5c:	04100793          	li	a5,65
    1d60:	00f41963          	bne	s0,a5,1d72 <spi_gpio_init+0x130>
    1d64:	31800693          	li	a3,792
    1d68:	4605                	li	a2,1
    1d6a:	4581                	li	a1,0
    1d6c:	04b00513          	li	a0,75
    1d70:	bf19                	j	1c86 <spi_gpio_init+0x44>
    1d72:	03100793          	li	a5,49
    1d76:	f0f41ae3          	bne	s0,a5,1c8a <spi_gpio_init+0x48>
    1d7a:	bf7d                	j	1d38 <spi_gpio_init+0xf6>

00001d7c <spi_init>:
    1d7c:	7139                	addi	sp,sp,-64
    1d7e:	dc22                	sw	s0,56(sp)
    1d80:	da26                	sw	s1,52(sp)
    1d82:	d84a                	sw	s2,48(sp)
    1d84:	d64e                	sw	s3,44(sp)
    1d86:	d452                	sw	s4,40(sp)
    1d88:	d256                	sw	s5,36(sp)
    1d8a:	d05a                	sw	s6,32(sp)
    1d8c:	de06                	sw	ra,60(sp)
    1d8e:	842a                	mv	s0,a0
    1d90:	892e                	mv	s2,a1
    1d92:	8a32                	mv	s4,a2
    1d94:	8ab6                	mv	s5,a3
    1d96:	8b3a                	mv	s6,a4
    1d98:	84be                	mv	s1,a5
    1d9a:	89c2                	mv	s3,a6
    1d9c:	e549                	bnez	a0,1e26 <spi_init+0xaa>
    1d9e:	6505                	lui	a0,0x1
    1da0:	4585                	li	a1,1
    1da2:	0505                	addi	a0,a0,1
    1da4:	5e3000ef          	jal	ra,2b86 <RCC_APB2PeriphClockCmd>
    1da8:	86da                	mv	a3,s6
    1daa:	8656                	mv	a2,s5
    1dac:	85d2                	mv	a1,s4
    1dae:	854a                	mv	a0,s2
    1db0:	3d49                	jal	1c42 <spi_gpio_init>
    1db2:	010407b7          	lui	a5,0x1040
    1db6:	c63e                	sw	a5,12(sp)
    1db8:	00011823          	sh	zero,16(sp)
    1dbc:	4785                	li	a5,1
    1dbe:	08f48863          	beq	s1,a5,1e4e <spi_init+0xd2>
    1dc2:	c0c9                	beqz	s1,1e44 <spi_init+0xc8>
    1dc4:	4709                	li	a4,2
    1dc6:	08e48963          	beq	s1,a4,1e58 <spi_init+0xdc>
    1dca:	468d                	li	a3,3
    1dcc:	08d48963          	beq	s1,a3,1e5e <spi_init+0xe2>
    1dd0:	20000793          	li	a5,512
    1dd4:	00f11b23          	sh	a5,22(sp)
    1dd8:	479d                	li	a5,7
    1dda:	00f11e23          	sh	a5,28(sp)
    1dde:	6795                	lui	a5,0x5
    1de0:	55c78793          	addi	a5,a5,1372 # 555c <SPIN>
    1de4:	040a                	slli	s0,s0,0x2
    1de6:	943e                	add	s0,s0,a5
    1de8:	4000                	lw	s0,0(s0)
    1dea:	098e                	slli	s3,s3,0x3
    1dec:	006c                	addi	a1,sp,12
    1dee:	8522                	mv	a0,s0
    1df0:	01311c23          	sh	s3,24(sp)
    1df4:	00011d23          	sh	zero,26(sp)
    1df8:	5e9000ef          	jal	ra,2be0 <SPI_Init>
    1dfc:	47c1                	li	a5,16
    1dfe:	06f91563          	bne	s2,a5,1e68 <spi_init+0xec>
    1e02:	4585                	li	a1,1
    1e04:	4505                	li	a0,1
    1e06:	305000ef          	jal	ra,290a <GPIO_PinRemapConfig>
    1e0a:	8522                	mv	a0,s0
    1e0c:	4585                	li	a1,1
    1e0e:	62d000ef          	jal	ra,2c3a <SPI_Cmd>
    1e12:	50f2                	lw	ra,60(sp)
    1e14:	5462                	lw	s0,56(sp)
    1e16:	54d2                	lw	s1,52(sp)
    1e18:	5942                	lw	s2,48(sp)
    1e1a:	59b2                	lw	s3,44(sp)
    1e1c:	5a22                	lw	s4,40(sp)
    1e1e:	5a92                	lw	s5,36(sp)
    1e20:	5b02                	lw	s6,32(sp)
    1e22:	6121                	addi	sp,sp,64
    1e24:	8082                	ret
    1e26:	4785                	li	a5,1
    1e28:	00f51863          	bne	a0,a5,1e38 <spi_init+0xbc>
    1e2c:	4585                	li	a1,1
    1e2e:	6511                	lui	a0,0x4
    1e30:	0505                	addi	a0,a0,1
    1e32:	573000ef          	jal	ra,2ba4 <RCC_APB1PeriphClockCmd>
    1e36:	bf8d                	j	1da8 <spi_init+0x2c>
    1e38:	4789                	li	a5,2
    1e3a:	f6f517e3          	bne	a0,a5,1da8 <spi_init+0x2c>
    1e3e:	4585                	li	a1,1
    1e40:	6521                	lui	a0,0x8
    1e42:	b7fd                	j	1e30 <spi_init+0xb4>
    1e44:	00011923          	sh	zero,18(sp)
    1e48:	00011a23          	sh	zero,20(sp)
    1e4c:	b751                	j	1dd0 <spi_init+0x54>
    1e4e:	00011923          	sh	zero,18(sp)
    1e52:	00911a23          	sh	s1,20(sp)
    1e56:	bfad                	j	1dd0 <spi_init+0x54>
    1e58:	00911923          	sh	s1,18(sp)
    1e5c:	b7f5                	j	1e48 <spi_init+0xcc>
    1e5e:	00e11923          	sh	a4,18(sp)
    1e62:	00f11a23          	sh	a5,20(sp)
    1e66:	b7ad                	j	1dd0 <spi_init+0x54>
    1e68:	04000793          	li	a5,64
    1e6c:	f8f91fe3          	bne	s2,a5,1e0a <spi_init+0x8e>
    1e70:	00201537          	lui	a0,0x201
    1e74:	4585                	li	a1,1
    1e76:	10050513          	addi	a0,a0,256 # 201100 <_data_lma+0x1fb95c>
    1e7a:	b771                	j	1e06 <spi_init+0x8a>

00001e7c <spi_write_8bit>:
    1e7c:	6795                	lui	a5,0x5
    1e7e:	050a                	slli	a0,a0,0x2
    1e80:	55c78793          	addi	a5,a5,1372 # 555c <SPIN>
    1e84:	97aa                	add	a5,a5,a0
    1e86:	4398                	lw	a4,0(a5)
    1e88:	00b71623          	sh	a1,12(a4) # 4001000c <_eusrstack+0x2000800c>
    1e8c:	00875783          	lhu	a5,8(a4)
    1e90:	0807f793          	andi	a5,a5,128
    1e94:	ffe5                	bnez	a5,1e8c <spi_write_8bit+0x10>
    1e96:	8082                	ret

00001e98 <spi_write_16bit>:
    1e98:	6795                	lui	a5,0x5
    1e9a:	050a                	slli	a0,a0,0x2
    1e9c:	55c78793          	addi	a5,a5,1372 # 555c <SPIN>
    1ea0:	97aa                	add	a5,a5,a0
    1ea2:	439c                	lw	a5,0(a5)
    1ea4:	0085d713          	srli	a4,a1,0x8
    1ea8:	00e79623          	sh	a4,12(a5)
    1eac:	0087d703          	lhu	a4,8(a5)
    1eb0:	08077713          	andi	a4,a4,128
    1eb4:	ff65                	bnez	a4,1eac <spi_write_16bit+0x14>
    1eb6:	0ff5f593          	andi	a1,a1,255
    1eba:	00b79623          	sh	a1,12(a5)
    1ebe:	0087d703          	lhu	a4,8(a5)
    1ec2:	08077713          	andi	a4,a4,128
    1ec6:	ff65                	bnez	a4,1ebe <spi_write_16bit+0x26>
    1ec8:	8082                	ret

00001eca <timbase_init>:
    1eca:	1101                	addi	sp,sp,-32
    1ecc:	cc22                	sw	s0,24(sp)
    1ece:	ca26                	sw	s1,20(sp)
    1ed0:	c84a                	sw	s2,16(sp)
    1ed2:	ce06                	sw	ra,28(sp)
    1ed4:	842a                	mv	s0,a0
    1ed6:	892e                	mv	s2,a1
    1ed8:	84b2                	mv	s1,a2
    1eda:	e901                	bnez	a0,1eea <timbase_init+0x20>
    1edc:	6505                	lui	a0,0x1
    1ede:	4585                	li	a1,1
    1ee0:	80050513          	addi	a0,a0,-2048 # 800 <__stack_size>
    1ee4:	4a3000ef          	jal	ra,2b86 <RCC_APB2PeriphClockCmd>
    1ee8:	a039                	j	1ef6 <timbase_init+0x2c>
    1eea:	4785                	li	a5,1
    1eec:	02f51e63          	bne	a0,a5,1f28 <timbase_init+0x5e>
    1ef0:	4585                	li	a1,1
    1ef2:	4b3000ef          	jal	ra,2ba4 <RCC_APB1PeriphClockCmd>
    1ef6:	6795                	lui	a5,0x5
    1ef8:	56878793          	addi	a5,a5,1384 # 5568 <TIMERN>
    1efc:	040a                	slli	s0,s0,0x2
    1efe:	943e                	add	s0,s0,a5
    1f00:	4008                	lw	a0,0(s0)
    1f02:	004c                	addi	a1,sp,4
    1f04:	01211423          	sh	s2,8(sp)
    1f08:	00911223          	sh	s1,4(sp)
    1f0c:	00011523          	sh	zero,10(sp)
    1f10:	00011323          	sh	zero,6(sp)
    1f14:	00010623          	sb	zero,12(sp)
    1f18:	541000ef          	jal	ra,2c58 <TIM_TimeBaseInit>
    1f1c:	40f2                	lw	ra,28(sp)
    1f1e:	4462                	lw	s0,24(sp)
    1f20:	44d2                	lw	s1,20(sp)
    1f22:	4942                	lw	s2,16(sp)
    1f24:	6105                	addi	sp,sp,32
    1f26:	8082                	ret
    1f28:	4789                	li	a5,2
    1f2a:	fcf503e3          	beq	a0,a5,1ef0 <timbase_init+0x26>
    1f2e:	478d                	li	a5,3
    1f30:	00f51563          	bne	a0,a5,1f3a <timbase_init+0x70>
    1f34:	4585                	li	a1,1
    1f36:	4511                	li	a0,4
    1f38:	bf6d                	j	1ef2 <timbase_init+0x28>
    1f3a:	4791                	li	a5,4
    1f3c:	00f51563          	bne	a0,a5,1f46 <timbase_init+0x7c>
    1f40:	4585                	li	a1,1
    1f42:	4521                	li	a0,8
    1f44:	b77d                	j	1ef2 <timbase_init+0x28>
    1f46:	479d                	li	a5,7
    1f48:	00f51563          	bne	a0,a5,1f52 <timbase_init+0x88>
    1f4c:	4585                	li	a1,1
    1f4e:	6509                	lui	a0,0x2
    1f50:	bf51                	j	1ee4 <timbase_init+0x1a>
    1f52:	47a1                	li	a5,8
    1f54:	00f51663          	bne	a0,a5,1f60 <timbase_init+0x96>
    1f58:	4585                	li	a1,1
    1f5a:	00080537          	lui	a0,0x80
    1f5e:	b759                	j	1ee4 <timbase_init+0x1a>
    1f60:	47a5                	li	a5,9
    1f62:	f8f51ae3          	bne	a0,a5,1ef6 <timbase_init+0x2c>
    1f66:	4585                	li	a1,1
    1f68:	00100537          	lui	a0,0x100
    1f6c:	bfa5                	j	1ee4 <timbase_init+0x1a>

00001f6e <uart_putchar>:
    1f6e:	6795                	lui	a5,0x5
    1f70:	050a                	slli	a0,a0,0x2
    1f72:	58878793          	addi	a5,a5,1416 # 5588 <UARTN>
    1f76:	97aa                	add	a5,a5,a0
    1f78:	4398                	lw	a4,0(a5)
    1f7a:	00075783          	lhu	a5,0(a4)
    1f7e:	0807f793          	andi	a5,a5,128
    1f82:	dfe5                	beqz	a5,1f7a <uart_putchar+0xc>
    1f84:	05c2                	slli	a1,a1,0x10
    1f86:	81c1                	srli	a1,a1,0x10
    1f88:	00b71223          	sh	a1,4(a4)
    1f8c:	8082                	ret

00001f8e <uart_putbuff>:
    1f8e:	1141                	addi	sp,sp,-16
    1f90:	c422                	sw	s0,8(sp)
    1f92:	c226                	sw	s1,4(sp)
    1f94:	c04a                	sw	s2,0(sp)
    1f96:	c606                	sw	ra,12(sp)
    1f98:	892a                	mv	s2,a0
    1f9a:	842e                	mv	s0,a1
    1f9c:	00c584b3          	add	s1,a1,a2
    1fa0:	00941863          	bne	s0,s1,1fb0 <uart_putbuff+0x22>
    1fa4:	40b2                	lw	ra,12(sp)
    1fa6:	4422                	lw	s0,8(sp)
    1fa8:	4492                	lw	s1,4(sp)
    1faa:	4902                	lw	s2,0(sp)
    1fac:	0141                	addi	sp,sp,16
    1fae:	8082                	ret
    1fb0:	0405                	addi	s0,s0,1
    1fb2:	fff44583          	lbu	a1,-1(s0)
    1fb6:	854a                	mv	a0,s2
    1fb8:	3f5d                	jal	1f6e <uart_putchar>
    1fba:	b7dd                	j	1fa0 <uart_putbuff+0x12>

00001fbc <uart_interrupt_init>:
    1fbc:	1141                	addi	sp,sp,-16
    1fbe:	c422                	sw	s0,8(sp)
    1fc0:	c226                	sw	s1,4(sp)
    1fc2:	c606                	sw	ra,12(sp)
    1fc4:	c04a                	sw	s2,0(sp)
    1fc6:	842a                	mv	s0,a0
    1fc8:	84ae                	mv	s1,a1
    1fca:	ee1d                	bnez	a2,2008 <uart_interrupt_init+0x4c>
    1fcc:	6795                	lui	a5,0x5
    1fce:	00251713          	slli	a4,a0,0x2
    1fd2:	58878793          	addi	a5,a5,1416 # 5588 <UARTN>
    1fd6:	862e                	mv	a2,a1
    1fd8:	97ba                	add	a5,a5,a4
    1fda:	52500593          	li	a1,1317
    1fde:	4388                	lw	a0,0(a5)
    1fe0:	1ee010ef          	jal	ra,31ce <USART_ITConfig>
    1fe4:	82018793          	addi	a5,gp,-2016 # 20000120 <uart_irq>
    1fe8:	943e                	add	s0,s0,a5
    1fea:	00044503          	lbu	a0,0(s0)
    1fee:	e000e7b7          	lui	a5,0xe000e
    1ff2:	97aa                	add	a5,a5,a0
    1ff4:	40078023          	sb	zero,1024(a5) # e000e400 <_eusrstack+0xc0006400>
    1ff8:	c48d                	beqz	s1,2022 <uart_interrupt_init+0x66>
    1ffa:	4422                	lw	s0,8(sp)
    1ffc:	40b2                	lw	ra,12(sp)
    1ffe:	4492                	lw	s1,4(sp)
    2000:	4902                	lw	s2,0(sp)
    2002:	0141                	addi	sp,sp,16
    2004:	d7aff06f          	j	157e <interrupt_enable>
    2008:	4785                	li	a5,1
    200a:	02f61363          	bne	a2,a5,2030 <uart_interrupt_init+0x74>
    200e:	6795                	lui	a5,0x5
    2010:	00251713          	slli	a4,a0,0x2
    2014:	58878793          	addi	a5,a5,1416 # 5588 <UARTN>
    2018:	862e                	mv	a2,a1
    201a:	97ba                	add	a5,a5,a4
    201c:	72700593          	li	a1,1831
    2020:	bf7d                	j	1fde <uart_interrupt_init+0x22>
    2022:	4422                	lw	s0,8(sp)
    2024:	40b2                	lw	ra,12(sp)
    2026:	4492                	lw	s1,4(sp)
    2028:	4902                	lw	s2,0(sp)
    202a:	0141                	addi	sp,sp,16
    202c:	d6cff06f          	j	1598 <interrupt_disable>
    2030:	4789                	li	a5,2
    2032:	04f61963          	bne	a2,a5,2084 <uart_interrupt_init+0xc8>
    2036:	6795                	lui	a5,0x5
    2038:	00251713          	slli	a4,a0,0x2
    203c:	58878793          	addi	a5,a5,1416 # 5588 <UARTN>
    2040:	97ba                	add	a5,a5,a4
    2042:	0007a903          	lw	s2,0(a5)
    2046:	4605                	li	a2,1
    2048:	52500593          	li	a1,1317
    204c:	854a                	mv	a0,s2
    204e:	180010ef          	jal	ra,31ce <USART_ITConfig>
    2052:	03540413          	addi	s0,s0,53
    2056:	86a6                	mv	a3,s1
    2058:	8522                	mv	a0,s0
    205a:	4601                	li	a2,0
    205c:	4581                	li	a1,0
    205e:	d64ff0ef          	jal	ra,15c2 <nvic_init>
    2062:	854a                	mv	a0,s2
    2064:	4605                	li	a2,1
    2066:	72700593          	li	a1,1831
    206a:	164010ef          	jal	ra,31ce <USART_ITConfig>
    206e:	8522                	mv	a0,s0
    2070:	4422                	lw	s0,8(sp)
    2072:	40b2                	lw	ra,12(sp)
    2074:	4902                	lw	s2,0(sp)
    2076:	86a6                	mv	a3,s1
    2078:	4492                	lw	s1,4(sp)
    207a:	4605                	li	a2,1
    207c:	4581                	li	a1,0
    207e:	0141                	addi	sp,sp,16
    2080:	d42ff06f          	j	15c2 <nvic_init>
    2084:	40b2                	lw	ra,12(sp)
    2086:	4422                	lw	s0,8(sp)
    2088:	4492                	lw	s1,4(sp)
    208a:	4902                	lw	s2,0(sp)
    208c:	0141                	addi	sp,sp,16
    208e:	8082                	ret

00002090 <uart_query>:
    2090:	6795                	lui	a5,0x5
    2092:	050a                	slli	a0,a0,0x2
    2094:	58878793          	addi	a5,a5,1416 # 5588 <UARTN>
    2098:	97aa                	add	a5,a5,a0
    209a:	4398                	lw	a4,0(a5)
    209c:	00075783          	lhu	a5,0(a4)
    20a0:	0207f793          	andi	a5,a5,32
    20a4:	c799                	beqz	a5,20b2 <uart_query+0x22>
    20a6:	00475783          	lhu	a5,4(a4)
    20aa:	4505                	li	a0,1
    20ac:	00f58023          	sb	a5,0(a1)
    20b0:	8082                	ret
    20b2:	4501                	li	a0,0
    20b4:	8082                	ret

000020b6 <uart_gpio_init>:
    20b6:	1141                	addi	sp,sp,-16
    20b8:	c606                	sw	ra,12(sp)
    20ba:	e10d                	bnez	a0,20dc <uart_gpio_init+0x26>
    20bc:	4785                	li	a5,1
    20be:	22f59863          	bne	a1,a5,22ee <uart_gpio_init+0x238>
    20c2:	46e1                	li	a3,24
    20c4:	4601                	li	a2,0
    20c6:	4525                	li	a0,9
    20c8:	bb4ff0ef          	jal	ra,147c <gpio_init>
    20cc:	4691                	li	a3,4
    20ce:	4601                	li	a2,0
    20d0:	4581                	li	a1,0
    20d2:	4529                	li	a0,10
    20d4:	40b2                	lw	ra,12(sp)
    20d6:	0141                	addi	sp,sp,16
    20d8:	ba4ff06f          	j	147c <gpio_init>
    20dc:	4789                	li	a5,2
    20de:	00f51f63          	bne	a0,a5,20fc <uart_gpio_init+0x46>
    20e2:	46e1                	li	a3,24
    20e4:	4601                	li	a2,0
    20e6:	4585                	li	a1,1
    20e8:	02600513          	li	a0,38
    20ec:	b90ff0ef          	jal	ra,147c <gpio_init>
    20f0:	4691                	li	a3,4
    20f2:	4601                	li	a2,0
    20f4:	4581                	li	a1,0
    20f6:	02700513          	li	a0,39
    20fa:	bfe9                	j	20d4 <uart_gpio_init+0x1e>
    20fc:	47c1                	li	a5,16
    20fe:	00f51d63          	bne	a0,a5,2118 <uart_gpio_init+0x62>
    2102:	46e1                	li	a3,24
    2104:	4601                	li	a2,0
    2106:	4585                	li	a1,1
    2108:	4509                	li	a0,2
    210a:	b72ff0ef          	jal	ra,147c <gpio_init>
    210e:	4691                	li	a3,4
    2110:	4601                	li	a2,0
    2112:	4581                	li	a1,0
    2114:	450d                	li	a0,3
    2116:	bf7d                	j	20d4 <uart_gpio_init+0x1e>
    2118:	47c9                	li	a5,18
    211a:	00f51f63          	bne	a0,a5,2138 <uart_gpio_init+0x82>
    211e:	46e1                	li	a3,24
    2120:	4601                	li	a2,0
    2122:	4585                	li	a1,1
    2124:	06500513          	li	a0,101
    2128:	b54ff0ef          	jal	ra,147c <gpio_init>
    212c:	4691                	li	a3,4
    212e:	4601                	li	a2,0
    2130:	4581                	li	a1,0
    2132:	06600513          	li	a0,102
    2136:	bf79                	j	20d4 <uart_gpio_init+0x1e>
    2138:	02000793          	li	a5,32
    213c:	00f51f63          	bne	a0,a5,215a <uart_gpio_init+0xa4>
    2140:	46e1                	li	a3,24
    2142:	4601                	li	a2,0
    2144:	4585                	li	a1,1
    2146:	02a00513          	li	a0,42
    214a:	b32ff0ef          	jal	ra,147c <gpio_init>
    214e:	4691                	li	a3,4
    2150:	4601                	li	a2,0
    2152:	4581                	li	a1,0
    2154:	02b00513          	li	a0,43
    2158:	bfb5                	j	20d4 <uart_gpio_init+0x1e>
    215a:	02200793          	li	a5,34
    215e:	00f51f63          	bne	a0,a5,217c <uart_gpio_init+0xc6>
    2162:	46e1                	li	a3,24
    2164:	4601                	li	a2,0
    2166:	4585                	li	a1,1
    2168:	04a00513          	li	a0,74
    216c:	b10ff0ef          	jal	ra,147c <gpio_init>
    2170:	4691                	li	a3,4
    2172:	4601                	li	a2,0
    2174:	4581                	li	a1,0
    2176:	04b00513          	li	a0,75
    217a:	bfa9                	j	20d4 <uart_gpio_init+0x1e>
    217c:	02400793          	li	a5,36
    2180:	02f51063          	bne	a0,a5,21a0 <uart_gpio_init+0xea>
    2184:	46e1                	li	a3,24
    2186:	4601                	li	a2,0
    2188:	4585                	li	a1,1
    218a:	06800513          	li	a0,104
    218e:	aeeff0ef          	jal	ra,147c <gpio_init>
    2192:	04800693          	li	a3,72
    2196:	4601                	li	a2,0
    2198:	4581                	li	a1,0
    219a:	06900513          	li	a0,105
    219e:	bf1d                	j	20d4 <uart_gpio_init+0x1e>
    21a0:	04000793          	li	a5,64
    21a4:	faf50fe3          	beq	a0,a5,2162 <uart_gpio_init+0xac>
    21a8:	04200793          	li	a5,66
    21ac:	00f51f63          	bne	a0,a5,21ca <uart_gpio_init+0x114>
    21b0:	46e1                	li	a3,24
    21b2:	4601                	li	a2,0
    21b4:	4585                	li	a1,1
    21b6:	02000513          	li	a0,32
    21ba:	ac2ff0ef          	jal	ra,147c <gpio_init>
    21be:	4691                	li	a3,4
    21c0:	4601                	li	a2,0
    21c2:	4581                	li	a1,0
    21c4:	02100513          	li	a0,33
    21c8:	b731                	j	20d4 <uart_gpio_init+0x1e>
    21ca:	05000793          	li	a5,80
    21ce:	00f51f63          	bne	a0,a5,21ec <uart_gpio_init+0x136>
    21d2:	46e1                	li	a3,24
    21d4:	4601                	li	a2,0
    21d6:	4585                	li	a1,1
    21d8:	04c00513          	li	a0,76
    21dc:	aa0ff0ef          	jal	ra,147c <gpio_init>
    21e0:	4691                	li	a3,4
    21e2:	4601                	li	a2,0
    21e4:	4581                	li	a1,0
    21e6:	06200513          	li	a0,98
    21ea:	b5ed                	j	20d4 <uart_gpio_init+0x1e>
    21ec:	05200793          	li	a5,82
    21f0:	00f51f63          	bne	a0,a5,220e <uart_gpio_init+0x158>
    21f4:	46e1                	li	a3,24
    21f6:	4601                	li	a2,0
    21f8:	4585                	li	a1,1
    21fa:	08800513          	li	a0,136
    21fe:	a7eff0ef          	jal	ra,147c <gpio_init>
    2202:	4691                	li	a3,4
    2204:	4601                	li	a2,0
    2206:	4581                	li	a1,0
    2208:	08900513          	li	a0,137
    220c:	b5e1                	j	20d4 <uart_gpio_init+0x1e>
    220e:	06000793          	li	a5,96
    2212:	02f51063          	bne	a0,a5,2232 <uart_gpio_init+0x17c>
    2216:	46e1                	li	a3,24
    2218:	4601                	li	a2,0
    221a:	4585                	li	a1,1
    221c:	04000513          	li	a0,64
    2220:	a5cff0ef          	jal	ra,147c <gpio_init>
    2224:	04800693          	li	a3,72
    2228:	4601                	li	a2,0
    222a:	4581                	li	a1,0
    222c:	04100513          	li	a0,65
    2230:	b555                	j	20d4 <uart_gpio_init+0x1e>
    2232:	06200793          	li	a5,98
    2236:	00f51f63          	bne	a0,a5,2254 <uart_gpio_init+0x19e>
    223a:	46e1                	li	a3,24
    223c:	4601                	li	a2,0
    223e:	4585                	li	a1,1
    2240:	08a00513          	li	a0,138
    2244:	a38ff0ef          	jal	ra,147c <gpio_init>
    2248:	4691                	li	a3,4
    224a:	4601                	li	a2,0
    224c:	4581                	li	a1,0
    224e:	08b00513          	li	a0,139
    2252:	b549                	j	20d4 <uart_gpio_init+0x1e>
    2254:	07000793          	li	a5,112
    2258:	00f51f63          	bne	a0,a5,2276 <uart_gpio_init+0x1c0>
    225c:	46e1                	li	a3,24
    225e:	4601                	li	a2,0
    2260:	4585                	li	a1,1
    2262:	04200513          	li	a0,66
    2266:	a16ff0ef          	jal	ra,147c <gpio_init>
    226a:	4691                	li	a3,4
    226c:	4601                	li	a2,0
    226e:	4581                	li	a1,0
    2270:	04300513          	li	a0,67
    2274:	b585                	j	20d4 <uart_gpio_init+0x1e>
    2276:	07200793          	li	a5,114
    227a:	00f51763          	bne	a0,a5,2288 <uart_gpio_init+0x1d2>
    227e:	46e1                	li	a3,24
    2280:	4601                	li	a2,0
    2282:	4585                	li	a1,1
    2284:	4519                	li	a0,6
    2286:	b7c5                	j	2266 <uart_gpio_init+0x1b0>
    2288:	07400793          	li	a5,116
    228c:	00f51f63          	bne	a0,a5,22aa <uart_gpio_init+0x1f4>
    2290:	46e1                	li	a3,24
    2292:	4601                	li	a2,0
    2294:	4585                	li	a1,1
    2296:	08c00513          	li	a0,140
    229a:	9e2ff0ef          	jal	ra,147c <gpio_init>
    229e:	4691                	li	a3,4
    22a0:	4601                	li	a2,0
    22a2:	4581                	li	a1,0
    22a4:	08d00513          	li	a0,141
    22a8:	b535                	j	20d4 <uart_gpio_init+0x1e>
    22aa:	08000793          	li	a5,128
    22ae:	00f51f63          	bne	a0,a5,22cc <uart_gpio_init+0x216>
    22b2:	46e1                	li	a3,24
    22b4:	4601                	li	a2,0
    22b6:	4585                	li	a1,1
    22b8:	04400513          	li	a0,68
    22bc:	9c0ff0ef          	jal	ra,147c <gpio_init>
    22c0:	4691                	li	a3,4
    22c2:	4601                	li	a2,0
    22c4:	4581                	li	a1,0
    22c6:	04500513          	li	a0,69
    22ca:	b529                	j	20d4 <uart_gpio_init+0x1e>
    22cc:	08200793          	li	a5,130
    22d0:	00f51f63          	bne	a0,a5,22ee <uart_gpio_init+0x238>
    22d4:	46e1                	li	a3,24
    22d6:	4601                	li	a2,0
    22d8:	4585                	li	a1,1
    22da:	08e00513          	li	a0,142
    22de:	99eff0ef          	jal	ra,147c <gpio_init>
    22e2:	4691                	li	a3,4
    22e4:	4601                	li	a2,0
    22e6:	4581                	li	a1,0
    22e8:	08f00513          	li	a0,143
    22ec:	b3e5                	j	20d4 <uart_gpio_init+0x1e>
    22ee:	40b2                	lw	ra,12(sp)
    22f0:	0141                	addi	sp,sp,16
    22f2:	8082                	ret

000022f4 <uart_init>:
    22f4:	7179                	addi	sp,sp,-48
    22f6:	d422                	sw	s0,40(sp)
    22f8:	ce4e                	sw	s3,28(sp)
    22fa:	842a                	mv	s0,a0
    22fc:	89ae                	mv	s3,a1
    22fe:	4505                	li	a0,1
    2300:	4585                	li	a1,1
    2302:	d226                	sw	s1,36(sp)
    2304:	d04a                	sw	s2,32(sp)
    2306:	d606                	sw	ra,44(sp)
    2308:	84b2                	mv	s1,a2
    230a:	8936                	mv	s2,a3
    230c:	07b000ef          	jal	ra,2b86 <RCC_APB2PeriphClockCmd>
    2310:	4789                	li	a5,2
    2312:	04f49e63          	bne	s1,a5,236e <uart_init+0x7a>
    2316:	478d                	li	a5,3
    2318:	00f91563          	bne	s2,a5,2322 <uart_init+0x2e>
    231c:	4585                	li	a1,1
    231e:	4511                	li	a0,4
    2320:	23ed                	jal	290a <GPIO_PinRemapConfig>
    2322:	12041c63          	bnez	s0,245a <uart_init+0x166>
    2326:	4585                	li	a1,1
    2328:	6511                	lui	a0,0x4
    232a:	05d000ef          	jal	ra,2b86 <RCC_APB2PeriphClockCmd>
    232e:	85ca                	mv	a1,s2
    2330:	8526                	mv	a0,s1
    2332:	d85ff0ef          	jal	ra,20b6 <uart_gpio_init>
    2336:	000c07b7          	lui	a5,0xc0
    233a:	c43e                	sw	a5,8(sp)
    233c:	6795                	lui	a5,0x5
    233e:	58878793          	addi	a5,a5,1416 # 5588 <UARTN>
    2342:	040a                	slli	s0,s0,0x2
    2344:	943e                	add	s0,s0,a5
    2346:	4000                	lw	s0,0(s0)
    2348:	858a                	mv	a1,sp
    234a:	c04e                	sw	s3,0(sp)
    234c:	8522                	mv	a0,s0
    234e:	c202                	sw	zero,4(sp)
    2350:	00011623          	sh	zero,12(sp)
    2354:	585000ef          	jal	ra,30d8 <USART_Init>
    2358:	8522                	mv	a0,s0
    235a:	4585                	li	a1,1
    235c:	657000ef          	jal	ra,31b2 <USART_Cmd>
    2360:	50b2                	lw	ra,44(sp)
    2362:	5422                	lw	s0,40(sp)
    2364:	5492                	lw	s1,36(sp)
    2366:	5902                	lw	s2,32(sp)
    2368:	49f2                	lw	s3,28(sp)
    236a:	6145                	addi	sp,sp,48
    236c:	8082                	ret
    236e:	47c9                	li	a5,18
    2370:	00f49863          	bne	s1,a5,2380 <uart_init+0x8c>
    2374:	47cd                	li	a5,19
    2376:	faf916e3          	bne	s2,a5,2322 <uart_init+0x2e>
    237a:	4585                	li	a1,1
    237c:	4521                	li	a0,8
    237e:	b74d                	j	2320 <uart_init+0x2c>
    2380:	02200793          	li	a5,34
    2384:	00f49b63          	bne	s1,a5,239a <uart_init+0xa6>
    2388:	02300793          	li	a5,35
    238c:	f8f91be3          	bne	s2,a5,2322 <uart_init+0x2e>
    2390:	00140537          	lui	a0,0x140
    2394:	4585                	li	a1,1
    2396:	0541                	addi	a0,a0,16
    2398:	b761                	j	2320 <uart_init+0x2c>
    239a:	02400793          	li	a5,36
    239e:	00f49c63          	bne	s1,a5,23b6 <uart_init+0xc2>
    23a2:	02500793          	li	a5,37
    23a6:	f6f91ee3          	bne	s2,a5,2322 <uart_init+0x2e>
    23aa:	00140537          	lui	a0,0x140
    23ae:	4585                	li	a1,1
    23b0:	03050513          	addi	a0,a0,48 # 140030 <_data_lma+0x13a88c>
    23b4:	b7b5                	j	2320 <uart_init+0x2c>
    23b6:	04200793          	li	a5,66
    23ba:	00f49963          	bne	s1,a5,23cc <uart_init+0xd8>
    23be:	04300793          	li	a5,67
    23c2:	f6f910e3          	bne	s2,a5,2322 <uart_init+0x2e>
    23c6:	4585                	li	a1,1
    23c8:	6505                	lui	a0,0x1
    23ca:	bf99                	j	2320 <uart_init+0x2c>
    23cc:	05200793          	li	a5,82
    23d0:	00f49b63          	bne	s1,a5,23e6 <uart_init+0xf2>
    23d4:	05300793          	li	a5,83
    23d8:	f4f915e3          	bne	s2,a5,2322 <uart_init+0x2e>
    23dc:	00200537          	lui	a0,0x200
    23e0:	4585                	li	a1,1
    23e2:	0505                	addi	a0,a0,1
    23e4:	bf35                	j	2320 <uart_init+0x2c>
    23e6:	06200793          	li	a5,98
    23ea:	00f49c63          	bne	s1,a5,2402 <uart_init+0x10e>
    23ee:	06300793          	li	a5,99
    23f2:	f2f918e3          	bne	s2,a5,2322 <uart_init+0x2e>
    23f6:	80001537          	lui	a0,0x80001
    23fa:	4585                	li	a1,1
    23fc:	80050513          	addi	a0,a0,-2048 # 80000800 <_eusrstack+0x5fff8800>
    2400:	b705                	j	2320 <uart_init+0x2c>
    2402:	07200793          	li	a5,114
    2406:	00f49e63          	bne	s1,a5,2422 <uart_init+0x12e>
    240a:	07300793          	li	a5,115
    240e:	f0f91ae3          	bne	s2,a5,2322 <uart_init+0x2e>
    2412:	40010737          	lui	a4,0x40010
    2416:	4f5c                	lw	a5,28(a4)
    2418:	004006b7          	lui	a3,0x400
    241c:	8fd5                	or	a5,a5,a3
    241e:	cf5c                	sw	a5,28(a4)
    2420:	b709                	j	2322 <uart_init+0x2e>
    2422:	07400793          	li	a5,116
    2426:	00f49c63          	bne	s1,a5,243e <uart_init+0x14a>
    242a:	07500793          	li	a5,117
    242e:	eef91ae3          	bne	s2,a5,2322 <uart_init+0x2e>
    2432:	40010737          	lui	a4,0x40010
    2436:	4f5c                	lw	a5,28(a4)
    2438:	008006b7          	lui	a3,0x800
    243c:	b7c5                	j	241c <uart_init+0x128>
    243e:	08200793          	li	a5,130
    2442:	eef490e3          	bne	s1,a5,2322 <uart_init+0x2e>
    2446:	08300793          	li	a5,131
    244a:	ecf91ce3          	bne	s2,a5,2322 <uart_init+0x2e>
    244e:	40010737          	lui	a4,0x40010
    2452:	4f5c                	lw	a5,28(a4)
    2454:	020006b7          	lui	a3,0x2000
    2458:	b7d1                	j	241c <uart_init+0x128>
    245a:	4785                	li	a5,1
    245c:	00f41763          	bne	s0,a5,246a <uart_init+0x176>
    2460:	4585                	li	a1,1
    2462:	00020537          	lui	a0,0x20
    2466:	2f3d                	jal	2ba4 <RCC_APB1PeriphClockCmd>
    2468:	b5d9                	j	232e <uart_init+0x3a>
    246a:	4789                	li	a5,2
    246c:	00f41663          	bne	s0,a5,2478 <uart_init+0x184>
    2470:	4585                	li	a1,1
    2472:	00040537          	lui	a0,0x40
    2476:	bfc5                	j	2466 <uart_init+0x172>
    2478:	478d                	li	a5,3
    247a:	00f41663          	bne	s0,a5,2486 <uart_init+0x192>
    247e:	4585                	li	a1,1
    2480:	00080537          	lui	a0,0x80
    2484:	b7cd                	j	2466 <uart_init+0x172>
    2486:	4791                	li	a5,4
    2488:	00f41663          	bne	s0,a5,2494 <uart_init+0x1a0>
    248c:	4585                	li	a1,1
    248e:	00100537          	lui	a0,0x100
    2492:	bfd1                	j	2466 <uart_init+0x172>
    2494:	4795                	li	a5,5
    2496:	00f41663          	bne	s0,a5,24a2 <uart_init+0x1ae>
    249a:	4585                	li	a1,1
    249c:	04000513          	li	a0,64
    24a0:	b7d9                	j	2466 <uart_init+0x172>
    24a2:	4799                	li	a5,6
    24a4:	00f41663          	bne	s0,a5,24b0 <uart_init+0x1bc>
    24a8:	4585                	li	a1,1
    24aa:	08000513          	li	a0,128
    24ae:	bf65                	j	2466 <uart_init+0x172>
    24b0:	479d                	li	a5,7
    24b2:	e6f41ee3          	bne	s0,a5,232e <uart_init+0x3a>
    24b6:	4585                	li	a1,1
    24b8:	10000513          	li	a0,256
    24bc:	b76d                	j	2466 <uart_init+0x172>

000024be <board_led_init>:
    24be:	4785                	li	a5,1
    24c0:	00f51a63          	bne	a0,a5,24d4 <board_led_init+0x16>
    24c4:	31000693          	li	a3,784
    24c8:	4605                	li	a2,1
    24ca:	4585                	li	a1,1
    24cc:	08200513          	li	a0,130
    24d0:	fadfe06f          	j	147c <gpio_init>
    24d4:	4789                	li	a5,2
    24d6:	00f51963          	bne	a0,a5,24e8 <board_led_init+0x2a>
    24da:	31000693          	li	a3,784
    24de:	4605                	li	a2,1
    24e0:	4585                	li	a1,1
    24e2:	08300513          	li	a0,131
    24e6:	b7ed                	j	24d0 <board_led_init+0x12>
    24e8:	8082                	ret

000024ea <car_init>:
    24ea:	1141                	addi	sp,sp,-16
    24ec:	c606                	sw	ra,12(sp)
    24ee:	8d2ff0ef          	jal	ra,15c0 <interrupt_global_disable>
    24f2:	bc1fe0ef          	jal	ra,10b2 <board_init>
    24f6:	c45fe0ef          	jal	ra,113a <Delay_Init>
    24fa:	4501                	li	a0,0
    24fc:	a88fe0ef          	jal	ra,784 <motor_init>
    2500:	4505                	li	a0,1
    2502:	a82fe0ef          	jal	ra,784 <motor_init>
    2506:	4505                	li	a0,1
    2508:	20a9                	jal	2552 <key_init>
    250a:	4509                	li	a0,2
    250c:	2099                	jal	2552 <key_init>
    250e:	450d                	li	a0,3
    2510:	2089                	jal	2552 <key_init>
    2512:	4511                	li	a0,4
    2514:	283d                	jal	2552 <key_init>
    2516:	4515                	li	a0,5
    2518:	282d                	jal	2552 <key_init>
    251a:	4519                	li	a0,6
    251c:	281d                	jal	2552 <key_init>
    251e:	4509                	li	a0,2
    2520:	d51fe0ef          	jal	ra,1270 <adc_init>
    2524:	450d                	li	a0,3
    2526:	d4bfe0ef          	jal	ra,1270 <adc_init>
    252a:	4511                	li	a0,4
    252c:	d45fe0ef          	jal	ra,1270 <adc_init>
    2530:	4515                	li	a0,5
    2532:	d3ffe0ef          	jal	ra,1270 <adc_init>
    2536:	4519                	li	a0,6
    2538:	d39fe0ef          	jal	ra,1270 <adc_init>
    253c:	4505                	li	a0,1
    253e:	3741                	jal	24be <board_led_init>
    2540:	4509                	li	a0,2
    2542:	3fb5                	jal	24be <board_led_init>
    2544:	b2ffe0ef          	jal	ra,1072 <ws2812b_init>
    2548:	2871                	jal	25e4 <reed_init>
    254a:	40b2                	lw	ra,12(sp)
    254c:	0141                	addi	sp,sp,16
    254e:	870ff06f          	j	15be <interrupt_global_enable>

00002552 <key_init>:
    2552:	1141                	addi	sp,sp,-16
    2554:	c422                	sw	s0,8(sp)
    2556:	c606                	sw	ra,12(sp)
    2558:	4785                	li	a5,1
    255a:	842a                	mv	s0,a0
    255c:	02f51463          	bne	a0,a5,2584 <key_init+0x32>
    2560:	34800693          	li	a3,840
    2564:	4605                	li	a2,1
    2566:	4581                	li	a1,0
    2568:	04000513          	li	a0,64
    256c:	f11fe0ef          	jal	ra,147c <gpio_init>
    2570:	4799                	li	a5,6
    2572:	06f41563          	bne	s0,a5,25dc <key_init+0x8a>
    2576:	34800693          	li	a3,840
    257a:	4605                	li	a2,1
    257c:	4581                	li	a1,0
    257e:	04500513          	li	a0,69
    2582:	a025                	j	25aa <key_init+0x58>
    2584:	4789                	li	a5,2
    2586:	00f51963          	bne	a0,a5,2598 <key_init+0x46>
    258a:	34800693          	li	a3,840
    258e:	4605                	li	a2,1
    2590:	4581                	li	a1,0
    2592:	04100513          	li	a0,65
    2596:	bfd9                	j	256c <key_init+0x1a>
    2598:	478d                	li	a5,3
    259a:	00f51d63          	bne	a0,a5,25b4 <key_init+0x62>
    259e:	34800693          	li	a3,840
    25a2:	4605                	li	a2,1
    25a4:	4581                	li	a1,0
    25a6:	04200513          	li	a0,66
    25aa:	4422                	lw	s0,8(sp)
    25ac:	40b2                	lw	ra,12(sp)
    25ae:	0141                	addi	sp,sp,16
    25b0:	ecdfe06f          	j	147c <gpio_init>
    25b4:	4791                	li	a5,4
    25b6:	00f51963          	bne	a0,a5,25c8 <key_init+0x76>
    25ba:	34800693          	li	a3,840
    25be:	4605                	li	a2,1
    25c0:	4581                	li	a1,0
    25c2:	04300513          	li	a0,67
    25c6:	b7d5                	j	25aa <key_init+0x58>
    25c8:	4795                	li	a5,5
    25ca:	faf513e3          	bne	a0,a5,2570 <key_init+0x1e>
    25ce:	34800693          	li	a3,840
    25d2:	4605                	li	a2,1
    25d4:	4581                	li	a1,0
    25d6:	04400513          	li	a0,68
    25da:	bfc1                	j	25aa <key_init+0x58>
    25dc:	40b2                	lw	ra,12(sp)
    25de:	4422                	lw	s0,8(sp)
    25e0:	0141                	addi	sp,sp,16
    25e2:	8082                	ret

000025e4 <reed_init>:
    25e4:	04800693          	li	a3,72
    25e8:	4605                	li	a2,1
    25ea:	4581                	li	a1,0
    25ec:	06a00513          	li	a0,106
    25f0:	e8dfe06f          	j	147c <gpio_init>
    25f4:	a001                	j	25f4 <reed_init+0x10>
    25f6:	a001                	j	25f6 <reed_init+0x12>

000025f8 <Ecall_M_Mode_Handler>:
    25f8:	a001                	j	25f8 <Ecall_M_Mode_Handler>

000025fa <Ecall_U_Mode_Handler>:
    25fa:	a001                	j	25fa <Ecall_U_Mode_Handler>

000025fc <Break_Point_Handler>:
    25fc:	a001                	j	25fc <Break_Point_Handler>

000025fe <SysTick_Handler>:
    25fe:	a001                	j	25fe <SysTick_Handler>

00002600 <SW_handler>:
    2600:	a001                	j	2600 <SW_handler>

00002602 <WWDG_IRQHandler>:
    2602:	a001                	j	2602 <WWDG_IRQHandler>

00002604 <PVD_IRQHandler>:
    2604:	a001                	j	2604 <PVD_IRQHandler>

00002606 <TAMPER_IRQHandler>:
    2606:	a001                	j	2606 <TAMPER_IRQHandler>

00002608 <RTC_IRQHandler>:
    2608:	a001                	j	2608 <RTC_IRQHandler>

0000260a <FLASH_IRQHandler>:
    260a:	a001                	j	260a <FLASH_IRQHandler>

0000260c <RCC_IRQHandler>:
    260c:	a001                	j	260c <RCC_IRQHandler>
    260e:	a001                	j	260e <RCC_IRQHandler+0x2>
    2610:	a001                	j	2610 <RCC_IRQHandler+0x4>
    2612:	a001                	j	2612 <RCC_IRQHandler+0x6>
    2614:	a001                	j	2614 <RCC_IRQHandler+0x8>
    2616:	a001                	j	2616 <RCC_IRQHandler+0xa>

00002618 <DMA1_Channel1_IRQHandler>:
    2618:	a001                	j	2618 <DMA1_Channel1_IRQHandler>

0000261a <DMA1_Channel2_IRQHandler>:
    261a:	a001                	j	261a <DMA1_Channel2_IRQHandler>

0000261c <DMA1_Channel3_IRQHandler>:
    261c:	a001                	j	261c <DMA1_Channel3_IRQHandler>

0000261e <DMA1_Channel4_IRQHandler>:
    261e:	a001                	j	261e <DMA1_Channel4_IRQHandler>

00002620 <DMA1_Channel5_IRQHandler>:
    2620:	a001                	j	2620 <DMA1_Channel5_IRQHandler>

00002622 <DMA1_Channel6_IRQHandler>:
    2622:	a001                	j	2622 <DMA1_Channel6_IRQHandler>

00002624 <DMA1_Channel7_IRQHandler>:
    2624:	a001                	j	2624 <DMA1_Channel7_IRQHandler>

00002626 <ADC1_2_IRQHandler>:
    2626:	a001                	j	2626 <ADC1_2_IRQHandler>

00002628 <USB_HP_CAN1_TX_IRQHandler>:
    2628:	a001                	j	2628 <USB_HP_CAN1_TX_IRQHandler>

0000262a <USB_LP_CAN1_RX0_IRQHandler>:
    262a:	a001                	j	262a <USB_LP_CAN1_RX0_IRQHandler>

0000262c <CAN1_RX1_IRQHandler>:
    262c:	a001                	j	262c <CAN1_RX1_IRQHandler>

0000262e <CAN1_SCE_IRQHandler>:
    262e:	a001                	j	262e <CAN1_SCE_IRQHandler>
    2630:	a001                	j	2630 <CAN1_SCE_IRQHandler+0x2>

00002632 <TIM1_BRK_IRQHandler>:
    2632:	a001                	j	2632 <TIM1_BRK_IRQHandler>
    2634:	a001                	j	2634 <TIM1_BRK_IRQHandler+0x2>

00002636 <TIM1_TRG_COM_IRQHandler>:
    2636:	a001                	j	2636 <TIM1_TRG_COM_IRQHandler>

00002638 <TIM1_CC_IRQHandler>:
    2638:	a001                	j	2638 <TIM1_CC_IRQHandler>
    263a:	a001                	j	263a <TIM1_CC_IRQHandler+0x2>
    263c:	a001                	j	263c <TIM1_CC_IRQHandler+0x4>
    263e:	a001                	j	263e <TIM1_CC_IRQHandler+0x6>

00002640 <I2C1_EV_IRQHandler>:
    2640:	a001                	j	2640 <I2C1_EV_IRQHandler>

00002642 <I2C1_ER_IRQHandler>:
    2642:	a001                	j	2642 <I2C1_ER_IRQHandler>

00002644 <I2C2_EV_IRQHandler>:
    2644:	a001                	j	2644 <I2C2_EV_IRQHandler>

00002646 <I2C2_ER_IRQHandler>:
    2646:	a001                	j	2646 <I2C2_ER_IRQHandler>

00002648 <SPI1_IRQHandler>:
    2648:	a001                	j	2648 <SPI1_IRQHandler>

0000264a <SPI2_IRQHandler>:
    264a:	a001                	j	264a <SPI2_IRQHandler>
    264c:	a001                	j	264c <SPI2_IRQHandler+0x2>
    264e:	a001                	j	264e <SPI2_IRQHandler+0x4>
    2650:	a001                	j	2650 <SPI2_IRQHandler+0x6>
    2652:	a001                	j	2652 <SPI2_IRQHandler+0x8>

00002654 <RTCAlarm_IRQHandler>:
    2654:	a001                	j	2654 <RTCAlarm_IRQHandler>

00002656 <USBWakeUp_IRQHandler>:
    2656:	a001                	j	2656 <USBWakeUp_IRQHandler>

00002658 <TIM8_BRK_IRQHandler>:
    2658:	a001                	j	2658 <TIM8_BRK_IRQHandler>
    265a:	a001                	j	265a <TIM8_BRK_IRQHandler+0x2>

0000265c <TIM8_TRG_COM_IRQHandler>:
    265c:	a001                	j	265c <TIM8_TRG_COM_IRQHandler>

0000265e <TIM8_CC_IRQHandler>:
    265e:	a001                	j	265e <TIM8_CC_IRQHandler>

00002660 <RNG_IRQHandler>:
    2660:	a001                	j	2660 <RNG_IRQHandler>

00002662 <FSMC_IRQHandler>:
    2662:	a001                	j	2662 <FSMC_IRQHandler>

00002664 <SDIO_IRQHandler>:
    2664:	a001                	j	2664 <SDIO_IRQHandler>
    2666:	a001                	j	2666 <SDIO_IRQHandler+0x2>

00002668 <SPI3_IRQHandler>:
    2668:	a001                	j	2668 <SPI3_IRQHandler>
    266a:	a001                	j	266a <SPI3_IRQHandler+0x2>
    266c:	a001                	j	266c <SPI3_IRQHandler+0x4>
    266e:	a001                	j	266e <SPI3_IRQHandler+0x6>
    2670:	a001                	j	2670 <SPI3_IRQHandler+0x8>

00002672 <DMA2_Channel1_IRQHandler>:
    2672:	a001                	j	2672 <DMA2_Channel1_IRQHandler>

00002674 <DMA2_Channel2_IRQHandler>:
    2674:	a001                	j	2674 <DMA2_Channel2_IRQHandler>

00002676 <DMA2_Channel3_IRQHandler>:
    2676:	a001                	j	2676 <DMA2_Channel3_IRQHandler>

00002678 <DMA2_Channel4_IRQHandler>:
    2678:	a001                	j	2678 <DMA2_Channel4_IRQHandler>

0000267a <DMA2_Channel5_IRQHandler>:
    267a:	a001                	j	267a <DMA2_Channel5_IRQHandler>

0000267c <ETH_IRQHandler>:
    267c:	a001                	j	267c <ETH_IRQHandler>

0000267e <ETH_WKUP_IRQHandler>:
    267e:	a001                	j	267e <ETH_WKUP_IRQHandler>

00002680 <CAN2_TX_IRQHandler>:
    2680:	a001                	j	2680 <CAN2_TX_IRQHandler>

00002682 <CAN2_RX0_IRQHandler>:
    2682:	a001                	j	2682 <CAN2_RX0_IRQHandler>

00002684 <CAN2_RX1_IRQHandler>:
    2684:	a001                	j	2684 <CAN2_RX1_IRQHandler>

00002686 <CAN2_SCE_IRQHandler>:
    2686:	a001                	j	2686 <CAN2_SCE_IRQHandler>
    2688:	a001                	j	2688 <CAN2_SCE_IRQHandler+0x2>

0000268a <USBHSWakeup_IRQHandler>:
    268a:	a001                	j	268a <USBHSWakeup_IRQHandler>

0000268c <USBHS_IRQHandler>:
    268c:	a001                	j	268c <USBHS_IRQHandler>
    268e:	a001                	j	268e <USBHS_IRQHandler+0x2>
    2690:	a001                	j	2690 <USBHS_IRQHandler+0x4>
    2692:	a001                	j	2692 <USBHS_IRQHandler+0x6>
    2694:	a001                	j	2694 <USBHS_IRQHandler+0x8>

00002696 <TIM9_BRK_IRQHandler>:
    2696:	a001                	j	2696 <TIM9_BRK_IRQHandler>
    2698:	a001                	j	2698 <TIM9_BRK_IRQHandler+0x2>

0000269a <TIM9_TRG_COM_IRQHandler>:
    269a:	a001                	j	269a <TIM9_TRG_COM_IRQHandler>

0000269c <TIM9_CC_IRQHandler>:
    269c:	a001                	j	269c <TIM9_CC_IRQHandler>

0000269e <TIM10_BRK_IRQHandler>:
    269e:	a001                	j	269e <TIM10_BRK_IRQHandler>
    26a0:	a001                	j	26a0 <TIM10_BRK_IRQHandler+0x2>

000026a2 <TIM10_TRG_COM_IRQHandler>:
    26a2:	a001                	j	26a2 <TIM10_TRG_COM_IRQHandler>

000026a4 <TIM10_CC_IRQHandler>:
    26a4:	a001                	j	26a4 <TIM10_CC_IRQHandler>

000026a6 <DMA2_Channel6_IRQHandler>:
    26a6:	a001                	j	26a6 <DMA2_Channel6_IRQHandler>

000026a8 <DMA2_Channel7_IRQHandler>:
    26a8:	a001                	j	26a8 <DMA2_Channel7_IRQHandler>

000026aa <DMA2_Channel8_IRQHandler>:
    26aa:	a001                	j	26aa <DMA2_Channel8_IRQHandler>

000026ac <DMA2_Channel9_IRQHandler>:
    26ac:	a001                	j	26ac <DMA2_Channel9_IRQHandler>

000026ae <DMA2_Channel10_IRQHandler>:
    26ae:	a001                	j	26ae <DMA2_Channel10_IRQHandler>

000026b0 <DMA2_Channel11_IRQHandler>:
    26b0:	a001                	j	26b0 <DMA2_Channel11_IRQHandler>

000026b2 <handle_reset>:
    26b2:	34129073          	csrw	mepc,t0
    26b6:	1fffe197          	auipc	gp,0x1fffe
    26ba:	24a18193          	addi	gp,gp,586 # 20000900 <__global_pointer$>
    26be:	20006117          	auipc	sp,0x20006
    26c2:	94210113          	addi	sp,sp,-1726 # 20008000 <_eusrstack>
    26c6:	00003517          	auipc	a0,0x3
    26ca:	0de50513          	addi	a0,a0,222 # 57a4 <_data_lma>
    26ce:	1fffe597          	auipc	a1,0x1fffe
    26d2:	93258593          	addi	a1,a1,-1742 # 20000000 <_data_vma>
    26d6:	83018613          	addi	a2,gp,-2000 # 20000130 <_edata>
    26da:	00c5fa63          	bgeu	a1,a2,26ee <handle_reset+0x3c>
    26de:	00052283          	lw	t0,0(a0)
    26e2:	0055a023          	sw	t0,0(a1)
    26e6:	0511                	addi	a0,a0,4
    26e8:	0591                	addi	a1,a1,4
    26ea:	fec5eae3          	bltu	a1,a2,26de <handle_reset+0x2c>
    26ee:	83018513          	addi	a0,gp,-2000 # 20000130 <_edata>
    26f2:	20003597          	auipc	a1,0x20003
    26f6:	3ee58593          	addi	a1,a1,1006 # 20005ae0 <_ebss>
    26fa:	00b57763          	bgeu	a0,a1,2708 <handle_reset+0x56>
    26fe:	00052023          	sw	zero,0(a0)
    2702:	0511                	addi	a0,a0,4
    2704:	feb56de3          	bltu	a0,a1,26fe <handle_reset+0x4c>
    2708:	42fd                	li	t0,31
    270a:	bc029073          	csrw	0xbc0,t0
    270e:	42fd                	li	t0,31
    2710:	80429073          	csrw	0x804,t0
    2714:	000082b7          	lui	t0,0x8
    2718:	88828293          	addi	t0,t0,-1912 # 7888 <_data_lma+0x20e4>
    271c:	3002a073          	csrs	mstatus,t0
    2720:	ffffe297          	auipc	t0,0xffffe
    2724:	91828293          	addi	t0,t0,-1768 # 38 <_einit>
    2728:	0032e293          	ori	t0,t0,3
    272c:	30529073          	csrw	mtvec,t0
    2730:	2cc010ef          	jal	ra,39fc <SystemInit>
    2734:	ffffe297          	auipc	t0,0xffffe
    2738:	00c28293          	addi	t0,t0,12 # 740 <main>
    273c:	34129073          	csrw	mepc,t0
    2740:	30200073          	mret

00002744 <ADC_DeInit>:
    2744:	1141                	addi	sp,sp,-16
    2746:	400127b7          	lui	a5,0x40012
    274a:	c606                	sw	ra,12(sp)
    274c:	40078793          	addi	a5,a5,1024 # 40012400 <_eusrstack+0x2000a400>
    2750:	00f51c63          	bne	a0,a5,2768 <ADC_DeInit+0x24>
    2754:	4585                	li	a1,1
    2756:	20000513          	li	a0,512
    275a:	21a5                	jal	2bc2 <RCC_APB2PeriphResetCmd>
    275c:	4581                	li	a1,0
    275e:	20000513          	li	a0,512
    2762:	40b2                	lw	ra,12(sp)
    2764:	0141                	addi	sp,sp,16
    2766:	a9b1                	j	2bc2 <RCC_APB2PeriphResetCmd>
    2768:	400137b7          	lui	a5,0x40013
    276c:	80078793          	addi	a5,a5,-2048 # 40012800 <_eusrstack+0x2000a800>
    2770:	00f51a63          	bne	a0,a5,2784 <ADC_DeInit+0x40>
    2774:	4585                	li	a1,1
    2776:	40000513          	li	a0,1024
    277a:	21a1                	jal	2bc2 <RCC_APB2PeriphResetCmd>
    277c:	4581                	li	a1,0
    277e:	40000513          	li	a0,1024
    2782:	b7c5                	j	2762 <ADC_DeInit+0x1e>
    2784:	40b2                	lw	ra,12(sp)
    2786:	0141                	addi	sp,sp,16
    2788:	8082                	ret

0000278a <ADC_Init>:
    278a:	415c                	lw	a5,4(a0)
    278c:	e0f10737          	lui	a4,0xe0f10
    2790:	eff70713          	addi	a4,a4,-257 # e0f0feff <_eusrstack+0xc0f07eff>
    2794:	4d94                	lw	a3,24(a1)
    2796:	8f7d                	and	a4,a4,a5
    2798:	419c                	lw	a5,0(a1)
    279a:	8fd5                	or	a5,a5,a3
    279c:	4dd4                	lw	a3,28(a1)
    279e:	8fd5                	or	a5,a5,a3
    27a0:	41d4                	lw	a3,4(a1)
    27a2:	06a2                	slli	a3,a3,0x8
    27a4:	8fd5                	or	a5,a5,a3
    27a6:	8fd9                	or	a5,a5,a4
    27a8:	c15c                	sw	a5,4(a0)
    27aa:	451c                	lw	a5,8(a0)
    27ac:	fff1f737          	lui	a4,0xfff1f
    27b0:	7fd70713          	addi	a4,a4,2045 # fff1f7fd <_eusrstack+0xdff177fd>
    27b4:	45d4                	lw	a3,12(a1)
    27b6:	8f7d                	and	a4,a4,a5
    27b8:	499c                	lw	a5,16(a1)
    27ba:	8fd5                	or	a5,a5,a3
    27bc:	4594                	lw	a3,8(a1)
    27be:	0686                	slli	a3,a3,0x1
    27c0:	8fd5                	or	a5,a5,a3
    27c2:	8fd9                	or	a5,a5,a4
    27c4:	c51c                	sw	a5,8(a0)
    27c6:	555c                	lw	a5,44(a0)
    27c8:	ff100737          	lui	a4,0xff100
    27cc:	177d                	addi	a4,a4,-1
    27ce:	8f7d                	and	a4,a4,a5
    27d0:	0145c783          	lbu	a5,20(a1)
    27d4:	17fd                	addi	a5,a5,-1
    27d6:	0ff7f793          	andi	a5,a5,255
    27da:	07d2                	slli	a5,a5,0x14
    27dc:	8fd9                	or	a5,a5,a4
    27de:	d55c                	sw	a5,44(a0)
    27e0:	8082                	ret

000027e2 <ADC_Cmd>:
    27e2:	451c                	lw	a5,8(a0)
    27e4:	c589                	beqz	a1,27ee <ADC_Cmd+0xc>
    27e6:	0017e793          	ori	a5,a5,1
    27ea:	c51c                	sw	a5,8(a0)
    27ec:	8082                	ret
    27ee:	9bf9                	andi	a5,a5,-2
    27f0:	bfed                	j	27ea <ADC_Cmd+0x8>

000027f2 <ADC_ResetCalibration>:
    27f2:	451c                	lw	a5,8(a0)
    27f4:	0087e793          	ori	a5,a5,8
    27f8:	c51c                	sw	a5,8(a0)
    27fa:	8082                	ret

000027fc <ADC_GetResetCalibrationStatus>:
    27fc:	4508                	lw	a0,8(a0)
    27fe:	810d                	srli	a0,a0,0x3
    2800:	8905                	andi	a0,a0,1
    2802:	8082                	ret

00002804 <ADC_StartCalibration>:
    2804:	451c                	lw	a5,8(a0)
    2806:	0047e793          	ori	a5,a5,4
    280a:	c51c                	sw	a5,8(a0)
    280c:	8082                	ret

0000280e <ADC_GetCalibrationStatus>:
    280e:	4508                	lw	a0,8(a0)
    2810:	8109                	srli	a0,a0,0x2
    2812:	8905                	andi	a0,a0,1
    2814:	8082                	ret

00002816 <EXTI_GetITStatus>:
    2816:	400107b7          	lui	a5,0x40010
    281a:	40078713          	addi	a4,a5,1024 # 40010400 <_eusrstack+0x20008400>
    281e:	4007a783          	lw	a5,1024(a5)
    2822:	4b58                	lw	a4,20(a4)
    2824:	8f69                	and	a4,a4,a0
    2826:	c709                	beqz	a4,2830 <EXTI_GetITStatus+0x1a>
    2828:	8d7d                	and	a0,a0,a5
    282a:	00a03533          	snez	a0,a0
    282e:	8082                	ret
    2830:	4501                	li	a0,0
    2832:	8082                	ret

00002834 <EXTI_ClearITPendingBit>:
    2834:	400107b7          	lui	a5,0x40010
    2838:	40a7aa23          	sw	a0,1044(a5) # 40010414 <_eusrstack+0x20008414>
    283c:	8082                	ret

0000283e <GPIO_Init>:
    283e:	459c                	lw	a5,8(a1)
    2840:	0107f713          	andi	a4,a5,16
    2844:	00f7f813          	andi	a6,a5,15
    2848:	c701                	beqz	a4,2850 <GPIO_Init+0x12>
    284a:	41d8                	lw	a4,4(a1)
    284c:	00e86833          	or	a6,a6,a4
    2850:	0005d583          	lhu	a1,0(a1)
    2854:	0ff5f713          	andi	a4,a1,255
    2858:	c339                	beqz	a4,289e <GPIO_Init+0x60>
    285a:	4118                	lw	a4,0(a0)
    285c:	4681                	li	a3,0
    285e:	4e85                	li	t4,1
    2860:	4f3d                	li	t5,15
    2862:	02800f93          	li	t6,40
    2866:	04800293          	li	t0,72
    286a:	4e21                	li	t3,8
    286c:	00de9633          	sll	a2,t4,a3
    2870:	00c5f8b3          	and	a7,a1,a2
    2874:	03161163          	bne	a2,a7,2896 <GPIO_Init+0x58>
    2878:	00269893          	slli	a7,a3,0x2
    287c:	011f1333          	sll	t1,t5,a7
    2880:	fff34313          	not	t1,t1
    2884:	00e37733          	and	a4,t1,a4
    2888:	011818b3          	sll	a7,a6,a7
    288c:	00e8e733          	or	a4,a7,a4
    2890:	05f79f63          	bne	a5,t6,28ee <GPIO_Init+0xb0>
    2894:	c950                	sw	a2,20(a0)
    2896:	0685                	addi	a3,a3,1
    2898:	fdc69ae3          	bne	a3,t3,286c <GPIO_Init+0x2e>
    289c:	c118                	sw	a4,0(a0)
    289e:	0ff00713          	li	a4,255
    28a2:	04b77563          	bgeu	a4,a1,28ec <GPIO_Init+0xae>
    28a6:	4154                	lw	a3,4(a0)
    28a8:	4621                	li	a2,8
    28aa:	4e85                	li	t4,1
    28ac:	4f3d                	li	t5,15
    28ae:	02800f93          	li	t6,40
    28b2:	04800293          	li	t0,72
    28b6:	4e41                	li	t3,16
    28b8:	00ce98b3          	sll	a7,t4,a2
    28bc:	0115f733          	and	a4,a1,a7
    28c0:	02e89263          	bne	a7,a4,28e4 <GPIO_Init+0xa6>
    28c4:	00261713          	slli	a4,a2,0x2
    28c8:	1701                	addi	a4,a4,-32
    28ca:	00ef1333          	sll	t1,t5,a4
    28ce:	fff34313          	not	t1,t1
    28d2:	00d376b3          	and	a3,t1,a3
    28d6:	00e81733          	sll	a4,a6,a4
    28da:	8ed9                	or	a3,a3,a4
    28dc:	01f79d63          	bne	a5,t6,28f6 <GPIO_Init+0xb8>
    28e0:	01152a23          	sw	a7,20(a0)
    28e4:	0605                	addi	a2,a2,1
    28e6:	fdc619e3          	bne	a2,t3,28b8 <GPIO_Init+0x7a>
    28ea:	c154                	sw	a3,4(a0)
    28ec:	8082                	ret
    28ee:	fa5794e3          	bne	a5,t0,2896 <GPIO_Init+0x58>
    28f2:	c910                	sw	a2,16(a0)
    28f4:	b74d                	j	2896 <GPIO_Init+0x58>
    28f6:	fe5797e3          	bne	a5,t0,28e4 <GPIO_Init+0xa6>
    28fa:	01152823          	sw	a7,16(a0)
    28fe:	b7dd                	j	28e4 <GPIO_Init+0xa6>

00002900 <GPIO_WriteBit>:
    2900:	c219                	beqz	a2,2906 <GPIO_WriteBit+0x6>
    2902:	c90c                	sw	a1,16(a0)
    2904:	8082                	ret
    2906:	c94c                	sw	a1,20(a0)
    2908:	8082                	ret

0000290a <GPIO_PinRemapConfig>:
    290a:	400107b7          	lui	a5,0x40010
    290e:	04055563          	bgez	a0,2958 <GPIO_PinRemapConfig+0x4e>
    2912:	4fd4                	lw	a3,28(a5)
    2914:	003007b7          	lui	a5,0x300
    2918:	01051713          	slli	a4,a0,0x10
    291c:	00f57633          	and	a2,a0,a5
    2920:	8341                	srli	a4,a4,0x10
    2922:	02f61d63          	bne	a2,a5,295c <GPIO_PinRemapConfig+0x52>
    2926:	f1000637          	lui	a2,0xf1000
    292a:	167d                	addi	a2,a2,-1
    292c:	40010837          	lui	a6,0x40010
    2930:	00c6f7b3          	and	a5,a3,a2
    2934:	00482683          	lw	a3,4(a6) # 40010004 <_eusrstack+0x20008004>
    2938:	8e75                	and	a2,a2,a3
    293a:	00c82223          	sw	a2,4(a6)
    293e:	c599                	beqz	a1,294c <GPIO_PinRemapConfig+0x42>
    2940:	01555693          	srli	a3,a0,0x15
    2944:	0692                	slli	a3,a3,0x4
    2946:	00d71733          	sll	a4,a4,a3
    294a:	8fd9                	or	a5,a5,a4
    294c:	40010737          	lui	a4,0x40010
    2950:	02055e63          	bgez	a0,298c <GPIO_PinRemapConfig+0x82>
    2954:	cf5c                	sw	a5,28(a4)
    2956:	8082                	ret
    2958:	43d4                	lw	a3,4(a5)
    295a:	bf6d                	j	2914 <GPIO_PinRemapConfig+0xa>
    295c:	00b51793          	slli	a5,a0,0xb
    2960:	0207d063          	bgez	a5,2980 <GPIO_PinRemapConfig+0x76>
    2964:	01055793          	srli	a5,a0,0x10
    2968:	00f7f613          	andi	a2,a5,15
    296c:	478d                	li	a5,3
    296e:	00c797b3          	sll	a5,a5,a2
    2972:	fff7c793          	not	a5,a5
    2976:	8ff5                	and	a5,a5,a3
    2978:	0f0006b7          	lui	a3,0xf000
    297c:	8fd5                	or	a5,a5,a3
    297e:	b7c1                	j	293e <GPIO_PinRemapConfig+0x34>
    2980:	01555793          	srli	a5,a0,0x15
    2984:	0792                	slli	a5,a5,0x4
    2986:	00f717b3          	sll	a5,a4,a5
    298a:	b7e5                	j	2972 <GPIO_PinRemapConfig+0x68>
    298c:	c35c                	sw	a5,4(a4)
    298e:	8082                	ret

00002990 <NVIC_Init>:
    2990:	84018793          	addi	a5,gp,-1984 # 20000140 <NVIC_Priority_Group>
    2994:	4394                	lw	a3,0(a5)
    2996:	00054703          	lbu	a4,0(a0)
    299a:	e689                	bnez	a3,29a4 <NVIC_Init+0x14>
    299c:	00254783          	lbu	a5,2(a0)
    29a0:	0792                	slli	a5,a5,0x4
    29a2:	a831                	j	29be <NVIC_Init+0x2e>
    29a4:	4394                	lw	a3,0(a5)
    29a6:	4605                	li	a2,1
    29a8:	04c69163          	bne	a3,a2,29ea <NVIC_Init+0x5a>
    29ac:	00254783          	lbu	a5,2(a0)
    29b0:	00154603          	lbu	a2,1(a0)
    29b4:	0792                	slli	a5,a5,0x4
    29b6:	00d61463          	bne	a2,a3,29be <NVIC_Init+0x2e>
    29ba:	f807e793          	ori	a5,a5,-128
    29be:	e000e6b7          	lui	a3,0xe000e
    29c2:	0ff7f793          	andi	a5,a5,255
    29c6:	96ba                	add	a3,a3,a4
    29c8:	40f68023          	sb	a5,1024(a3) # e000e400 <_eusrstack+0xc0006400>
    29cc:	4685                	li	a3,1
    29ce:	00575793          	srli	a5,a4,0x5
    29d2:	00e69733          	sll	a4,a3,a4
    29d6:	4154                	lw	a3,4(a0)
    29d8:	c6ad                	beqz	a3,2a42 <NVIC_Init+0xb2>
    29da:	04078793          	addi	a5,a5,64 # 300040 <_data_lma+0x2fa89c>
    29de:	078a                	slli	a5,a5,0x2
    29e0:	e000e6b7          	lui	a3,0xe000e
    29e4:	97b6                	add	a5,a5,a3
    29e6:	c398                	sw	a4,0(a5)
    29e8:	8082                	ret
    29ea:	438c                	lw	a1,0(a5)
    29ec:	4689                	li	a3,2
    29ee:	02d59363          	bne	a1,a3,2a14 <NVIC_Init+0x84>
    29f2:	00154683          	lbu	a3,1(a0)
    29f6:	00254783          	lbu	a5,2(a0)
    29fa:	00d66563          	bltu	a2,a3,2a04 <NVIC_Init+0x74>
    29fe:	068a                	slli	a3,a3,0x2
    2a00:	97b6                	add	a5,a5,a3
    2a02:	bf79                	j	29a0 <NVIC_Init+0x10>
    2a04:	03e68693          	addi	a3,a3,62 # e000e03e <_eusrstack+0xc000603e>
    2a08:	068a                	slli	a3,a3,0x2
    2a0a:	97b6                	add	a5,a5,a3
    2a0c:	0ff7f793          	andi	a5,a5,255
    2a10:	0792                	slli	a5,a5,0x4
    2a12:	b765                	j	29ba <NVIC_Init+0x2a>
    2a14:	4390                	lw	a2,0(a5)
    2a16:	468d                	li	a3,3
    2a18:	00d61e63          	bne	a2,a3,2a34 <NVIC_Init+0xa4>
    2a1c:	00154683          	lbu	a3,1(a0)
    2a20:	00254783          	lbu	a5,2(a0)
    2a24:	00d66463          	bltu	a2,a3,2a2c <NVIC_Init+0x9c>
    2a28:	0686                	slli	a3,a3,0x1
    2a2a:	bfd9                	j	2a00 <NVIC_Init+0x70>
    2a2c:	07c68693          	addi	a3,a3,124
    2a30:	0686                	slli	a3,a3,0x1
    2a32:	bfe1                	j	2a0a <NVIC_Init+0x7a>
    2a34:	4394                	lw	a3,0(a5)
    2a36:	4791                	li	a5,4
    2a38:	f8f69ae3          	bne	a3,a5,29cc <NVIC_Init+0x3c>
    2a3c:	00154783          	lbu	a5,1(a0)
    2a40:	b785                	j	29a0 <NVIC_Init+0x10>
    2a42:	06078793          	addi	a5,a5,96
    2a46:	bf61                	j	29de <NVIC_Init+0x4e>

00002a48 <RCC_ADCCLKConfig>:
    2a48:	400216b7          	lui	a3,0x40021
    2a4c:	42dc                	lw	a5,4(a3)
    2a4e:	7751                	lui	a4,0xffff4
    2a50:	177d                	addi	a4,a4,-1
    2a52:	8ff9                	and	a5,a5,a4
    2a54:	8d5d                	or	a0,a0,a5
    2a56:	c2c8                	sw	a0,4(a3)
    2a58:	8082                	ret

00002a5a <RCC_GetClocksFreq>:
    2a5a:	40021737          	lui	a4,0x40021
    2a5e:	435c                	lw	a5,4(a4)
    2a60:	4691                	li	a3,4
    2a62:	8bb1                	andi	a5,a5,12
    2a64:	00d78563          	beq	a5,a3,2a6e <RCC_GetClocksFreq+0x14>
    2a68:	46a1                	li	a3,8
    2a6a:	06d78663          	beq	a5,a3,2ad6 <RCC_GetClocksFreq+0x7c>
    2a6e:	007a17b7          	lui	a5,0x7a1
    2a72:	20078793          	addi	a5,a5,512 # 7a1200 <_data_lma+0x79ba5c>
    2a76:	c11c                	sw	a5,0(a0)
    2a78:	40021637          	lui	a2,0x40021
    2a7c:	425c                	lw	a5,4(a2)
    2a7e:	20000737          	lui	a4,0x20000
    2a82:	04c70713          	addi	a4,a4,76 # 2000004c <APBAHBPrescTable>
    2a86:	8391                	srli	a5,a5,0x4
    2a88:	8bbd                	andi	a5,a5,15
    2a8a:	97ba                	add	a5,a5,a4
    2a8c:	0007c683          	lbu	a3,0(a5)
    2a90:	411c                	lw	a5,0(a0)
    2a92:	00d7d7b3          	srl	a5,a5,a3
    2a96:	c15c                	sw	a5,4(a0)
    2a98:	4254                	lw	a3,4(a2)
    2a9a:	82a1                	srli	a3,a3,0x8
    2a9c:	8a9d                	andi	a3,a3,7
    2a9e:	96ba                	add	a3,a3,a4
    2aa0:	0006c683          	lbu	a3,0(a3) # 40021000 <_eusrstack+0x20019000>
    2aa4:	00d7d6b3          	srl	a3,a5,a3
    2aa8:	c514                	sw	a3,8(a0)
    2aaa:	4254                	lw	a3,4(a2)
    2aac:	82ad                	srli	a3,a3,0xb
    2aae:	8a9d                	andi	a3,a3,7
    2ab0:	9736                	add	a4,a4,a3
    2ab2:	00074703          	lbu	a4,0(a4)
    2ab6:	00e7d7b3          	srl	a5,a5,a4
    2aba:	c55c                	sw	a5,12(a0)
    2abc:	4258                	lw	a4,4(a2)
    2abe:	8339                	srli	a4,a4,0xe
    2ac0:	00377693          	andi	a3,a4,3
    2ac4:	80c18713          	addi	a4,gp,-2036 # 2000010c <ADCPrescTable>
    2ac8:	9736                	add	a4,a4,a3
    2aca:	00074703          	lbu	a4,0(a4)
    2ace:	02e7d7b3          	divu	a5,a5,a4
    2ad2:	c91c                	sw	a5,16(a0)
    2ad4:	8082                	ret
    2ad6:	435c                	lw	a5,4(a4)
    2ad8:	4354                	lw	a3,4(a4)
    2ada:	6741                	lui	a4,0x10
    2adc:	83c9                	srli	a5,a5,0x12
    2ade:	8ef9                	and	a3,a3,a4
    2ae0:	1ffff737          	lui	a4,0x1ffff
    2ae4:	70c72703          	lw	a4,1804(a4) # 1ffff70c <_data_lma+0x1fff9f68>
    2ae8:	8bbd                	andi	a5,a5,15
    2aea:	0789                	addi	a5,a5,2
    2aec:	01171613          	slli	a2,a4,0x11
    2af0:	00064863          	bltz	a2,2b00 <RCC_GetClocksFreq+0xa6>
    2af4:	4645                	li	a2,17
    2af6:	4701                	li	a4,0
    2af8:	02c79263          	bne	a5,a2,2b1c <RCC_GetClocksFreq+0xc2>
    2afc:	47c9                	li	a5,18
    2afe:	a839                	j	2b1c <RCC_GetClocksFreq+0xc2>
    2b00:	4709                	li	a4,2
    2b02:	02e78963          	beq	a5,a4,2b34 <RCC_GetClocksFreq+0xda>
    2b06:	473d                	li	a4,15
    2b08:	02e78863          	beq	a5,a4,2b38 <RCC_GetClocksFreq+0xde>
    2b0c:	4741                	li	a4,16
    2b0e:	02e78863          	beq	a5,a4,2b3e <RCC_GetClocksFreq+0xe4>
    2b12:	4645                	li	a2,17
    2b14:	4701                	li	a4,0
    2b16:	00c79363          	bne	a5,a2,2b1c <RCC_GetClocksFreq+0xc2>
    2b1a:	47c1                	li	a5,16
    2b1c:	e685                	bnez	a3,2b44 <RCC_GetClocksFreq+0xea>
    2b1e:	400246b7          	lui	a3,0x40024
    2b22:	8006a683          	lw	a3,-2048(a3) # 40023800 <_eusrstack+0x2001b800>
    2b26:	8ac1                	andi	a3,a3,16
    2b28:	c68d                	beqz	a3,2b52 <RCC_GetClocksFreq+0xf8>
    2b2a:	007a16b7          	lui	a3,0x7a1
    2b2e:	20068693          	addi	a3,a3,512 # 7a1200 <_data_lma+0x79ba5c>
    2b32:	a025                	j	2b5a <RCC_GetClocksFreq+0x100>
    2b34:	4701                	li	a4,0
    2b36:	b7d9                	j	2afc <RCC_GetClocksFreq+0xa2>
    2b38:	4705                	li	a4,1
    2b3a:	47b5                	li	a5,13
    2b3c:	b7c5                	j	2b1c <RCC_GetClocksFreq+0xc2>
    2b3e:	4701                	li	a4,0
    2b40:	47bd                	li	a5,15
    2b42:	bfe9                	j	2b1c <RCC_GetClocksFreq+0xc2>
    2b44:	400216b7          	lui	a3,0x40021
    2b48:	42d4                	lw	a3,4(a3)
    2b4a:	00e69613          	slli	a2,a3,0xe
    2b4e:	fc065ee3          	bgez	a2,2b2a <RCC_GetClocksFreq+0xd0>
    2b52:	003d16b7          	lui	a3,0x3d1
    2b56:	90068693          	addi	a3,a3,-1792 # 3d0900 <_data_lma+0x3cb15c>
    2b5a:	02d787b3          	mul	a5,a5,a3
    2b5e:	c11c                	sw	a5,0(a0)
    2b60:	df01                	beqz	a4,2a78 <RCC_GetClocksFreq+0x1e>
    2b62:	411c                	lw	a5,0(a0)
    2b64:	8385                	srli	a5,a5,0x1
    2b66:	bf01                	j	2a76 <RCC_GetClocksFreq+0x1c>

00002b68 <RCC_AHBPeriphClockCmd>:
    2b68:	c599                	beqz	a1,2b76 <RCC_AHBPeriphClockCmd+0xe>
    2b6a:	40021737          	lui	a4,0x40021
    2b6e:	4b5c                	lw	a5,20(a4)
    2b70:	8d5d                	or	a0,a0,a5
    2b72:	cb48                	sw	a0,20(a4)
    2b74:	8082                	ret
    2b76:	400217b7          	lui	a5,0x40021
    2b7a:	4bd8                	lw	a4,20(a5)
    2b7c:	fff54513          	not	a0,a0
    2b80:	8d79                	and	a0,a0,a4
    2b82:	cbc8                	sw	a0,20(a5)
    2b84:	8082                	ret

00002b86 <RCC_APB2PeriphClockCmd>:
    2b86:	c599                	beqz	a1,2b94 <RCC_APB2PeriphClockCmd+0xe>
    2b88:	40021737          	lui	a4,0x40021
    2b8c:	4f1c                	lw	a5,24(a4)
    2b8e:	8d5d                	or	a0,a0,a5
    2b90:	cf08                	sw	a0,24(a4)
    2b92:	8082                	ret
    2b94:	400217b7          	lui	a5,0x40021
    2b98:	4f98                	lw	a4,24(a5)
    2b9a:	fff54513          	not	a0,a0
    2b9e:	8d79                	and	a0,a0,a4
    2ba0:	cf88                	sw	a0,24(a5)
    2ba2:	8082                	ret

00002ba4 <RCC_APB1PeriphClockCmd>:
    2ba4:	c599                	beqz	a1,2bb2 <RCC_APB1PeriphClockCmd+0xe>
    2ba6:	40021737          	lui	a4,0x40021
    2baa:	4f5c                	lw	a5,28(a4)
    2bac:	8d5d                	or	a0,a0,a5
    2bae:	cf48                	sw	a0,28(a4)
    2bb0:	8082                	ret
    2bb2:	400217b7          	lui	a5,0x40021
    2bb6:	4fd8                	lw	a4,28(a5)
    2bb8:	fff54513          	not	a0,a0
    2bbc:	8d79                	and	a0,a0,a4
    2bbe:	cfc8                	sw	a0,28(a5)
    2bc0:	8082                	ret

00002bc2 <RCC_APB2PeriphResetCmd>:
    2bc2:	c599                	beqz	a1,2bd0 <RCC_APB2PeriphResetCmd+0xe>
    2bc4:	40021737          	lui	a4,0x40021
    2bc8:	475c                	lw	a5,12(a4)
    2bca:	8d5d                	or	a0,a0,a5
    2bcc:	c748                	sw	a0,12(a4)
    2bce:	8082                	ret
    2bd0:	400217b7          	lui	a5,0x40021
    2bd4:	47d8                	lw	a4,12(a5)
    2bd6:	fff54513          	not	a0,a0
    2bda:	8d79                	and	a0,a0,a4
    2bdc:	c7c8                	sw	a0,12(a5)
    2bde:	8082                	ret

00002be0 <SPI_Init>:
    2be0:	00055703          	lhu	a4,0(a0)
    2be4:	678d                	lui	a5,0x3
    2be6:	04078793          	addi	a5,a5,64 # 3040 <TIM_OC2PreloadConfig+0x10>
    2bea:	0025d683          	lhu	a3,2(a1)
    2bee:	8f7d                	and	a4,a4,a5
    2bf0:	0005d783          	lhu	a5,0(a1)
    2bf4:	8fd5                	or	a5,a5,a3
    2bf6:	0045d683          	lhu	a3,4(a1)
    2bfa:	8fd5                	or	a5,a5,a3
    2bfc:	0065d683          	lhu	a3,6(a1)
    2c00:	8fd5                	or	a5,a5,a3
    2c02:	0085d683          	lhu	a3,8(a1)
    2c06:	8fd5                	or	a5,a5,a3
    2c08:	00a5d683          	lhu	a3,10(a1)
    2c0c:	8fd5                	or	a5,a5,a3
    2c0e:	00c5d683          	lhu	a3,12(a1)
    2c12:	8fd5                	or	a5,a5,a3
    2c14:	00e5d683          	lhu	a3,14(a1)
    2c18:	8fd5                	or	a5,a5,a3
    2c1a:	8fd9                	or	a5,a5,a4
    2c1c:	00f51023          	sh	a5,0(a0)
    2c20:	01c55703          	lhu	a4,28(a0)
    2c24:	77fd                	lui	a5,0xfffff
    2c26:	7ff78793          	addi	a5,a5,2047 # fffff7ff <_eusrstack+0xdfff77ff>
    2c2a:	8ff9                	and	a5,a5,a4
    2c2c:	00f51e23          	sh	a5,28(a0)
    2c30:	0105d783          	lhu	a5,16(a1)
    2c34:	00f51823          	sh	a5,16(a0)
    2c38:	8082                	ret

00002c3a <SPI_Cmd>:
    2c3a:	00055783          	lhu	a5,0(a0)
    2c3e:	c591                	beqz	a1,2c4a <SPI_Cmd+0x10>
    2c40:	0407e793          	ori	a5,a5,64
    2c44:	00f51023          	sh	a5,0(a0)
    2c48:	8082                	ret
    2c4a:	07c2                	slli	a5,a5,0x10
    2c4c:	83c1                	srli	a5,a5,0x10
    2c4e:	fbf7f793          	andi	a5,a5,-65
    2c52:	07c2                	slli	a5,a5,0x10
    2c54:	83c1                	srli	a5,a5,0x10
    2c56:	b7fd                	j	2c44 <SPI_Cmd+0xa>

00002c58 <TIM_TimeBaseInit>:
    2c58:	00055783          	lhu	a5,0(a0)
    2c5c:	40013737          	lui	a4,0x40013
    2c60:	c0070693          	addi	a3,a4,-1024 # 40012c00 <_eusrstack+0x2000ac00>
    2c64:	07c2                	slli	a5,a5,0x10
    2c66:	83c1                	srli	a5,a5,0x10
    2c68:	04d50063          	beq	a0,a3,2ca8 <TIM_TimeBaseInit+0x50>
    2c6c:	400006b7          	lui	a3,0x40000
    2c70:	02d50c63          	beq	a0,a3,2ca8 <TIM_TimeBaseInit+0x50>
    2c74:	40068693          	addi	a3,a3,1024 # 40000400 <_eusrstack+0x1fff8400>
    2c78:	02d50863          	beq	a0,a3,2ca8 <TIM_TimeBaseInit+0x50>
    2c7c:	400016b7          	lui	a3,0x40001
    2c80:	80068613          	addi	a2,a3,-2048 # 40000800 <_eusrstack+0x1fff8800>
    2c84:	02c50263          	beq	a0,a2,2ca8 <TIM_TimeBaseInit+0x50>
    2c88:	c0068693          	addi	a3,a3,-1024
    2c8c:	00d50e63          	beq	a0,a3,2ca8 <TIM_TimeBaseInit+0x50>
    2c90:	40070713          	addi	a4,a4,1024
    2c94:	00e50a63          	beq	a0,a4,2ca8 <TIM_TimeBaseInit+0x50>
    2c98:	40015737          	lui	a4,0x40015
    2c9c:	c0070693          	addi	a3,a4,-1024 # 40014c00 <_eusrstack+0x2000cc00>
    2ca0:	00d50463          	beq	a0,a3,2ca8 <TIM_TimeBaseInit+0x50>
    2ca4:	00e51763          	bne	a0,a4,2cb2 <TIM_TimeBaseInit+0x5a>
    2ca8:	0025d703          	lhu	a4,2(a1)
    2cac:	f8f7f793          	andi	a5,a5,-113
    2cb0:	8fd9                	or	a5,a5,a4
    2cb2:	40001737          	lui	a4,0x40001
    2cb6:	00e50d63          	beq	a0,a4,2cd0 <TIM_TimeBaseInit+0x78>
    2cba:	40070713          	addi	a4,a4,1024 # 40001400 <_eusrstack+0x1fff9400>
    2cbe:	00e50963          	beq	a0,a4,2cd0 <TIM_TimeBaseInit+0x78>
    2cc2:	cff7f793          	andi	a5,a5,-769
    2cc6:	0065d703          	lhu	a4,6(a1)
    2cca:	07c2                	slli	a5,a5,0x10
    2ccc:	83c1                	srli	a5,a5,0x10
    2cce:	8fd9                	or	a5,a5,a4
    2cd0:	00f51023          	sh	a5,0(a0)
    2cd4:	0045d783          	lhu	a5,4(a1)
    2cd8:	02f51623          	sh	a5,44(a0)
    2cdc:	0005d783          	lhu	a5,0(a1)
    2ce0:	02f51423          	sh	a5,40(a0)
    2ce4:	400137b7          	lui	a5,0x40013
    2ce8:	c0078713          	addi	a4,a5,-1024 # 40012c00 <_eusrstack+0x2000ac00>
    2cec:	00e50e63          	beq	a0,a4,2d08 <TIM_TimeBaseInit+0xb0>
    2cf0:	40078793          	addi	a5,a5,1024
    2cf4:	00f50a63          	beq	a0,a5,2d08 <TIM_TimeBaseInit+0xb0>
    2cf8:	400157b7          	lui	a5,0x40015
    2cfc:	c0078713          	addi	a4,a5,-1024 # 40014c00 <_eusrstack+0x2000cc00>
    2d00:	00e50463          	beq	a0,a4,2d08 <TIM_TimeBaseInit+0xb0>
    2d04:	00f51663          	bne	a0,a5,2d10 <TIM_TimeBaseInit+0xb8>
    2d08:	0085c783          	lbu	a5,8(a1)
    2d0c:	02f51823          	sh	a5,48(a0)
    2d10:	4785                	li	a5,1
    2d12:	00f51a23          	sh	a5,20(a0)
    2d16:	8082                	ret

00002d18 <TIM_OC1Init>:
    2d18:	02055783          	lhu	a5,32(a0)
    2d1c:	0005d603          	lhu	a2,0(a1)
    2d20:	0025d803          	lhu	a6,2(a1)
    2d24:	07c2                	slli	a5,a5,0x10
    2d26:	83c1                	srli	a5,a5,0x10
    2d28:	9bf9                	andi	a5,a5,-2
    2d2a:	07c2                	slli	a5,a5,0x10
    2d2c:	83c1                	srli	a5,a5,0x10
    2d2e:	02f51023          	sh	a5,32(a0)
    2d32:	02055783          	lhu	a5,32(a0)
    2d36:	00455683          	lhu	a3,4(a0)
    2d3a:	01855703          	lhu	a4,24(a0)
    2d3e:	07c2                	slli	a5,a5,0x10
    2d40:	83c1                	srli	a5,a5,0x10
    2d42:	0742                	slli	a4,a4,0x10
    2d44:	8341                	srli	a4,a4,0x10
    2d46:	f8c77713          	andi	a4,a4,-116
    2d4a:	8f51                	or	a4,a4,a2
    2d4c:	0085d603          	lhu	a2,8(a1)
    2d50:	9bf5                	andi	a5,a5,-3
    2d52:	06c2                	slli	a3,a3,0x10
    2d54:	01066633          	or	a2,a2,a6
    2d58:	8fd1                	or	a5,a5,a2
    2d5a:	40013637          	lui	a2,0x40013
    2d5e:	c0060813          	addi	a6,a2,-1024 # 40012c00 <_eusrstack+0x2000ac00>
    2d62:	82c1                	srli	a3,a3,0x10
    2d64:	01050e63          	beq	a0,a6,2d80 <TIM_OC1Init+0x68>
    2d68:	40060613          	addi	a2,a2,1024
    2d6c:	00c50a63          	beq	a0,a2,2d80 <TIM_OC1Init+0x68>
    2d70:	40015637          	lui	a2,0x40015
    2d74:	c0060813          	addi	a6,a2,-1024 # 40014c00 <_eusrstack+0x2000cc00>
    2d78:	01050463          	beq	a0,a6,2d80 <TIM_OC1Init+0x68>
    2d7c:	02c51363          	bne	a0,a2,2da2 <TIM_OC1Init+0x8a>
    2d80:	00a5d603          	lhu	a2,10(a1)
    2d84:	9bdd                	andi	a5,a5,-9
    2d86:	00e5d803          	lhu	a6,14(a1)
    2d8a:	8fd1                	or	a5,a5,a2
    2d8c:	0045d603          	lhu	a2,4(a1)
    2d90:	9bed                	andi	a5,a5,-5
    2d92:	cff6f693          	andi	a3,a3,-769
    2d96:	8fd1                	or	a5,a5,a2
    2d98:	00c5d603          	lhu	a2,12(a1)
    2d9c:	01066633          	or	a2,a2,a6
    2da0:	8ed1                	or	a3,a3,a2
    2da2:	00d51223          	sh	a3,4(a0)
    2da6:	00e51c23          	sh	a4,24(a0)
    2daa:	0065d703          	lhu	a4,6(a1)
    2dae:	02e51a23          	sh	a4,52(a0)
    2db2:	02f51023          	sh	a5,32(a0)
    2db6:	8082                	ret

00002db8 <TIM_OC2Init>:
    2db8:	02055783          	lhu	a5,32(a0)
    2dbc:	7765                	lui	a4,0xffff9
    2dbe:	cff70713          	addi	a4,a4,-769 # ffff8cff <_eusrstack+0xdfff0cff>
    2dc2:	07c2                	slli	a5,a5,0x10
    2dc4:	83c1                	srli	a5,a5,0x10
    2dc6:	9bbd                	andi	a5,a5,-17
    2dc8:	07c2                	slli	a5,a5,0x10
    2dca:	83c1                	srli	a5,a5,0x10
    2dcc:	02f51023          	sh	a5,32(a0)
    2dd0:	02055783          	lhu	a5,32(a0)
    2dd4:	00455683          	lhu	a3,4(a0)
    2dd8:	0085d803          	lhu	a6,8(a1)
    2ddc:	07c2                	slli	a5,a5,0x10
    2dde:	01069613          	slli	a2,a3,0x10
    2de2:	01855683          	lhu	a3,24(a0)
    2de6:	83c1                	srli	a5,a5,0x10
    2de8:	fdf7f793          	andi	a5,a5,-33
    2dec:	8f75                	and	a4,a4,a3
    2dee:	0005d683          	lhu	a3,0(a1)
    2df2:	8241                	srli	a2,a2,0x10
    2df4:	06a2                	slli	a3,a3,0x8
    2df6:	8f55                	or	a4,a4,a3
    2df8:	0025d683          	lhu	a3,2(a1)
    2dfc:	0742                	slli	a4,a4,0x10
    2dfe:	8341                	srli	a4,a4,0x10
    2e00:	0106e6b3          	or	a3,a3,a6
    2e04:	0692                	slli	a3,a3,0x4
    2e06:	8fd5                	or	a5,a5,a3
    2e08:	400136b7          	lui	a3,0x40013
    2e0c:	07c2                	slli	a5,a5,0x10
    2e0e:	c0068813          	addi	a6,a3,-1024 # 40012c00 <_eusrstack+0x2000ac00>
    2e12:	83c1                	srli	a5,a5,0x10
    2e14:	01050e63          	beq	a0,a6,2e30 <TIM_OC2Init+0x78>
    2e18:	40068693          	addi	a3,a3,1024
    2e1c:	00d50a63          	beq	a0,a3,2e30 <TIM_OC2Init+0x78>
    2e20:	400156b7          	lui	a3,0x40015
    2e24:	c0068813          	addi	a6,a3,-1024 # 40014c00 <_eusrstack+0x2000cc00>
    2e28:	01050463          	beq	a0,a6,2e30 <TIM_OC2Init+0x78>
    2e2c:	04d51163          	bne	a0,a3,2e6e <TIM_OC2Init+0xb6>
    2e30:	00a5d683          	lhu	a3,10(a1)
    2e34:	f7f7f793          	andi	a5,a5,-129
    2e38:	00c5d803          	lhu	a6,12(a1)
    2e3c:	0692                	slli	a3,a3,0x4
    2e3e:	8fd5                	or	a5,a5,a3
    2e40:	0045d683          	lhu	a3,4(a1)
    2e44:	07c2                	slli	a5,a5,0x10
    2e46:	83c1                	srli	a5,a5,0x10
    2e48:	0692                	slli	a3,a3,0x4
    2e4a:	fbf7f793          	andi	a5,a5,-65
    2e4e:	8fd5                	or	a5,a5,a3
    2e50:	76fd                	lui	a3,0xfffff
    2e52:	3ff68693          	addi	a3,a3,1023 # fffff3ff <_eusrstack+0xdfff73ff>
    2e56:	8ef1                	and	a3,a3,a2
    2e58:	00e5d603          	lhu	a2,14(a1)
    2e5c:	07c2                	slli	a5,a5,0x10
    2e5e:	83c1                	srli	a5,a5,0x10
    2e60:	01066633          	or	a2,a2,a6
    2e64:	060a                	slli	a2,a2,0x2
    2e66:	8ed1                	or	a3,a3,a2
    2e68:	01069613          	slli	a2,a3,0x10
    2e6c:	8241                	srli	a2,a2,0x10
    2e6e:	00c51223          	sh	a2,4(a0)
    2e72:	00e51c23          	sh	a4,24(a0)
    2e76:	0065d703          	lhu	a4,6(a1)
    2e7a:	02e51c23          	sh	a4,56(a0)
    2e7e:	02f51023          	sh	a5,32(a0)
    2e82:	8082                	ret

00002e84 <TIM_OC3Init>:
    2e84:	02055783          	lhu	a5,32(a0)
    2e88:	0085d803          	lhu	a6,8(a1)
    2e8c:	07c2                	slli	a5,a5,0x10
    2e8e:	83c1                	srli	a5,a5,0x10
    2e90:	eff7f793          	andi	a5,a5,-257
    2e94:	07c2                	slli	a5,a5,0x10
    2e96:	83c1                	srli	a5,a5,0x10
    2e98:	02f51023          	sh	a5,32(a0)
    2e9c:	02055783          	lhu	a5,32(a0)
    2ea0:	00455683          	lhu	a3,4(a0)
    2ea4:	01c55703          	lhu	a4,28(a0)
    2ea8:	07c2                	slli	a5,a5,0x10
    2eaa:	01069613          	slli	a2,a3,0x10
    2eae:	0742                	slli	a4,a4,0x10
    2eb0:	0005d683          	lhu	a3,0(a1)
    2eb4:	8341                	srli	a4,a4,0x10
    2eb6:	f8c77713          	andi	a4,a4,-116
    2eba:	8f55                	or	a4,a4,a3
    2ebc:	0025d683          	lhu	a3,2(a1)
    2ec0:	83c1                	srli	a5,a5,0x10
    2ec2:	dff7f793          	andi	a5,a5,-513
    2ec6:	0106e6b3          	or	a3,a3,a6
    2eca:	06a2                	slli	a3,a3,0x8
    2ecc:	8fd5                	or	a5,a5,a3
    2ece:	400136b7          	lui	a3,0x40013
    2ed2:	07c2                	slli	a5,a5,0x10
    2ed4:	c0068813          	addi	a6,a3,-1024 # 40012c00 <_eusrstack+0x2000ac00>
    2ed8:	8241                	srli	a2,a2,0x10
    2eda:	83c1                	srli	a5,a5,0x10
    2edc:	01050e63          	beq	a0,a6,2ef8 <TIM_OC3Init+0x74>
    2ee0:	40068693          	addi	a3,a3,1024
    2ee4:	00d50a63          	beq	a0,a3,2ef8 <TIM_OC3Init+0x74>
    2ee8:	400156b7          	lui	a3,0x40015
    2eec:	c0068813          	addi	a6,a3,-1024 # 40014c00 <_eusrstack+0x2000cc00>
    2ef0:	01050463          	beq	a0,a6,2ef8 <TIM_OC3Init+0x74>
    2ef4:	04d51263          	bne	a0,a3,2f38 <TIM_OC3Init+0xb4>
    2ef8:	76fd                	lui	a3,0xfffff
    2efa:	7ff68693          	addi	a3,a3,2047 # fffff7ff <_eusrstack+0xdfff77ff>
    2efe:	8ff5                	and	a5,a5,a3
    2f00:	00a5d683          	lhu	a3,10(a1)
    2f04:	00c5d803          	lhu	a6,12(a1)
    2f08:	06a2                	slli	a3,a3,0x8
    2f0a:	8fd5                	or	a5,a5,a3
    2f0c:	0045d683          	lhu	a3,4(a1)
    2f10:	07c2                	slli	a5,a5,0x10
    2f12:	83c1                	srli	a5,a5,0x10
    2f14:	06a2                	slli	a3,a3,0x8
    2f16:	bff7f793          	andi	a5,a5,-1025
    2f1a:	8fd5                	or	a5,a5,a3
    2f1c:	76f5                	lui	a3,0xffffd
    2f1e:	16fd                	addi	a3,a3,-1
    2f20:	8ef1                	and	a3,a3,a2
    2f22:	00e5d603          	lhu	a2,14(a1)
    2f26:	07c2                	slli	a5,a5,0x10
    2f28:	83c1                	srli	a5,a5,0x10
    2f2a:	01066633          	or	a2,a2,a6
    2f2e:	0612                	slli	a2,a2,0x4
    2f30:	8ed1                	or	a3,a3,a2
    2f32:	01069613          	slli	a2,a3,0x10
    2f36:	8241                	srli	a2,a2,0x10
    2f38:	00c51223          	sh	a2,4(a0)
    2f3c:	00e51e23          	sh	a4,28(a0)
    2f40:	0065d703          	lhu	a4,6(a1)
    2f44:	02e51e23          	sh	a4,60(a0)
    2f48:	02f51023          	sh	a5,32(a0)
    2f4c:	8082                	ret

00002f4e <TIM_OC4Init>:
    2f4e:	02055703          	lhu	a4,32(a0)
    2f52:	77fd                	lui	a5,0xfffff
    2f54:	17fd                	addi	a5,a5,-1
    2f56:	8ff9                	and	a5,a5,a4
    2f58:	02f51023          	sh	a5,32(a0)
    2f5c:	02055803          	lhu	a6,32(a0)
    2f60:	00455683          	lhu	a3,4(a0)
    2f64:	01c55783          	lhu	a5,28(a0)
    2f68:	7765                	lui	a4,0xffff9
    2f6a:	01069613          	slli	a2,a3,0x10
    2f6e:	0005d683          	lhu	a3,0(a1)
    2f72:	cff70713          	addi	a4,a4,-769 # ffff8cff <_eusrstack+0xdfff0cff>
    2f76:	8f7d                	and	a4,a4,a5
    2f78:	77f9                	lui	a5,0xffffe
    2f7a:	06a2                	slli	a3,a3,0x8
    2f7c:	17fd                	addi	a5,a5,-1
    2f7e:	8f55                	or	a4,a4,a3
    2f80:	0107f7b3          	and	a5,a5,a6
    2f84:	0025d683          	lhu	a3,2(a1)
    2f88:	0085d803          	lhu	a6,8(a1)
    2f8c:	0742                	slli	a4,a4,0x10
    2f8e:	8241                	srli	a2,a2,0x10
    2f90:	0106e6b3          	or	a3,a3,a6
    2f94:	06b2                	slli	a3,a3,0xc
    2f96:	8fd5                	or	a5,a5,a3
    2f98:	400136b7          	lui	a3,0x40013
    2f9c:	07c2                	slli	a5,a5,0x10
    2f9e:	c0068813          	addi	a6,a3,-1024 # 40012c00 <_eusrstack+0x2000ac00>
    2fa2:	8341                	srli	a4,a4,0x10
    2fa4:	83c1                	srli	a5,a5,0x10
    2fa6:	01050e63          	beq	a0,a6,2fc2 <TIM_OC4Init+0x74>
    2faa:	40068693          	addi	a3,a3,1024
    2fae:	00d50a63          	beq	a0,a3,2fc2 <TIM_OC4Init+0x74>
    2fb2:	400156b7          	lui	a3,0x40015
    2fb6:	c0068813          	addi	a6,a3,-1024 # 40014c00 <_eusrstack+0x2000cc00>
    2fba:	01050463          	beq	a0,a6,2fc2 <TIM_OC4Init+0x74>
    2fbe:	00d51c63          	bne	a0,a3,2fd6 <TIM_OC4Init+0x88>
    2fc2:	76f1                	lui	a3,0xffffc
    2fc4:	16fd                	addi	a3,a3,-1
    2fc6:	8ef1                	and	a3,a3,a2
    2fc8:	00c5d603          	lhu	a2,12(a1)
    2fcc:	061a                	slli	a2,a2,0x6
    2fce:	8ed1                	or	a3,a3,a2
    2fd0:	01069613          	slli	a2,a3,0x10
    2fd4:	8241                	srli	a2,a2,0x10
    2fd6:	00c51223          	sh	a2,4(a0)
    2fda:	00e51e23          	sh	a4,28(a0)
    2fde:	0065d703          	lhu	a4,6(a1)
    2fe2:	04e51023          	sh	a4,64(a0)
    2fe6:	02f51023          	sh	a5,32(a0)
    2fea:	8082                	ret

00002fec <TIM_Cmd>:
    2fec:	00055783          	lhu	a5,0(a0)
    2ff0:	c591                	beqz	a1,2ffc <TIM_Cmd+0x10>
    2ff2:	0017e793          	ori	a5,a5,1
    2ff6:	00f51023          	sh	a5,0(a0)
    2ffa:	8082                	ret
    2ffc:	07c2                	slli	a5,a5,0x10
    2ffe:	83c1                	srli	a5,a5,0x10
    3000:	9bf9                	andi	a5,a5,-2
    3002:	07c2                	slli	a5,a5,0x10
    3004:	83c1                	srli	a5,a5,0x10
    3006:	bfc5                	j	2ff6 <TIM_Cmd+0xa>

00003008 <TIM_CtrlPWMOutputs>:
    3008:	04455783          	lhu	a5,68(a0)
    300c:	c591                	beqz	a1,3018 <TIM_CtrlPWMOutputs+0x10>
    300e:	6721                	lui	a4,0x8
    3010:	8fd9                	or	a5,a5,a4
    3012:	04f51223          	sh	a5,68(a0)
    3016:	8082                	ret
    3018:	07c6                	slli	a5,a5,0x11
    301a:	83c5                	srli	a5,a5,0x11
    301c:	bfdd                	j	3012 <TIM_CtrlPWMOutputs+0xa>

0000301e <TIM_OC1PreloadConfig>:
    301e:	01855783          	lhu	a5,24(a0)
    3022:	07c2                	slli	a5,a5,0x10
    3024:	83c1                	srli	a5,a5,0x10
    3026:	9bdd                	andi	a5,a5,-9
    3028:	8ddd                	or	a1,a1,a5
    302a:	00b51c23          	sh	a1,24(a0)
    302e:	8082                	ret

00003030 <TIM_OC2PreloadConfig>:
    3030:	01855703          	lhu	a4,24(a0)
    3034:	77fd                	lui	a5,0xfffff
    3036:	7ff78793          	addi	a5,a5,2047 # fffff7ff <_eusrstack+0xdfff77ff>
    303a:	8ff9                	and	a5,a5,a4
    303c:	05a2                	slli	a1,a1,0x8
    303e:	8fcd                	or	a5,a5,a1
    3040:	07c2                	slli	a5,a5,0x10
    3042:	83c1                	srli	a5,a5,0x10
    3044:	00f51c23          	sh	a5,24(a0)
    3048:	8082                	ret

0000304a <TIM_OC3PreloadConfig>:
    304a:	01c55783          	lhu	a5,28(a0)
    304e:	07c2                	slli	a5,a5,0x10
    3050:	83c1                	srli	a5,a5,0x10
    3052:	9bdd                	andi	a5,a5,-9
    3054:	8ddd                	or	a1,a1,a5
    3056:	00b51e23          	sh	a1,28(a0)
    305a:	8082                	ret

0000305c <TIM_OC4PreloadConfig>:
    305c:	01c55703          	lhu	a4,28(a0)
    3060:	77fd                	lui	a5,0xfffff
    3062:	7ff78793          	addi	a5,a5,2047 # fffff7ff <_eusrstack+0xdfff77ff>
    3066:	8ff9                	and	a5,a5,a4
    3068:	05a2                	slli	a1,a1,0x8
    306a:	8fcd                	or	a5,a5,a1
    306c:	07c2                	slli	a5,a5,0x10
    306e:	83c1                	srli	a5,a5,0x10
    3070:	00f51e23          	sh	a5,28(a0)
    3074:	8082                	ret

00003076 <TIM_OC4PolarityConfig>:
    3076:	02055703          	lhu	a4,32(a0)
    307a:	77f9                	lui	a5,0xffffe
    307c:	17fd                	addi	a5,a5,-1
    307e:	8ff9                	and	a5,a5,a4
    3080:	05b2                	slli	a1,a1,0xc
    3082:	8fcd                	or	a5,a5,a1
    3084:	07c2                	slli	a5,a5,0x10
    3086:	83c1                	srli	a5,a5,0x10
    3088:	02f51023          	sh	a5,32(a0)
    308c:	8082                	ret

0000308e <TIM_SetCounter>:
    308e:	02b51223          	sh	a1,36(a0)
    3092:	8082                	ret

00003094 <TIM_GetFlagStatus>:
    3094:	01055503          	lhu	a0,16(a0)
    3098:	8d6d                	and	a0,a0,a1
    309a:	00a03533          	snez	a0,a0
    309e:	8082                	ret

000030a0 <TIM_ClearFlag>:
    30a0:	fff5c593          	not	a1,a1
    30a4:	05c2                	slli	a1,a1,0x10
    30a6:	81c1                	srli	a1,a1,0x10
    30a8:	00b51823          	sh	a1,16(a0)
    30ac:	8082                	ret

000030ae <TIM_GetITStatus>:
    30ae:	01055783          	lhu	a5,16(a0)
    30b2:	00c55503          	lhu	a0,12(a0)
    30b6:	8fed                	and	a5,a5,a1
    30b8:	0542                	slli	a0,a0,0x10
    30ba:	8141                	srli	a0,a0,0x10
    30bc:	c789                	beqz	a5,30c6 <TIM_GetITStatus+0x18>
    30be:	8d6d                	and	a0,a0,a1
    30c0:	00a03533          	snez	a0,a0
    30c4:	8082                	ret
    30c6:	4501                	li	a0,0
    30c8:	8082                	ret

000030ca <TIM_ClearITPendingBit>:
    30ca:	fff5c593          	not	a1,a1
    30ce:	05c2                	slli	a1,a1,0x10
    30d0:	81c1                	srli	a1,a1,0x10
    30d2:	00b51823          	sh	a1,16(a0)
    30d6:	8082                	ret

000030d8 <USART_Init>:
    30d8:	01055683          	lhu	a3,16(a0)
    30dc:	77f5                	lui	a5,0xffffd
    30de:	17fd                	addi	a5,a5,-1
    30e0:	8ff5                	and	a5,a5,a3
    30e2:	0065d683          	lhu	a3,6(a1)
    30e6:	7139                	addi	sp,sp,-64
    30e8:	dc22                	sw	s0,56(sp)
    30ea:	de06                	sw	ra,60(sp)
    30ec:	8fd5                	or	a5,a5,a3
    30ee:	00c5d703          	lhu	a4,12(a1)
    30f2:	00f51823          	sh	a5,16(a0)
    30f6:	00c55683          	lhu	a3,12(a0)
    30fa:	77fd                	lui	a5,0xfffff
    30fc:	9f378793          	addi	a5,a5,-1549 # ffffe9f3 <_eusrstack+0xdfff69f3>
    3100:	8ff5                	and	a5,a5,a3
    3102:	0045d683          	lhu	a3,4(a1)
    3106:	842a                	mv	s0,a0
    3108:	c62e                	sw	a1,12(sp)
    310a:	8fd5                	or	a5,a5,a3
    310c:	0085d683          	lhu	a3,8(a1)
    3110:	8fd5                	or	a5,a5,a3
    3112:	00a5d683          	lhu	a3,10(a1)
    3116:	8fd5                	or	a5,a5,a3
    3118:	00f51623          	sh	a5,12(a0)
    311c:	01455783          	lhu	a5,20(a0)
    3120:	07c2                	slli	a5,a5,0x10
    3122:	83c1                	srli	a5,a5,0x10
    3124:	cff7f793          	andi	a5,a5,-769
    3128:	8fd9                	or	a5,a5,a4
    312a:	00f51a23          	sh	a5,20(a0)
    312e:	0868                	addi	a0,sp,28
    3130:	92bff0ef          	jal	ra,2a5a <RCC_GetClocksFreq>
    3134:	400147b7          	lui	a5,0x40014
    3138:	80078793          	addi	a5,a5,-2048 # 40013800 <_eusrstack+0x2000b800>
    313c:	45b2                	lw	a1,12(sp)
    313e:	04f41e63          	bne	s0,a5,319a <USART_Init+0xc2>
    3142:	57a2                	lw	a5,40(sp)
    3144:	00c45683          	lhu	a3,12(s0)
    3148:	4765                	li	a4,25
    314a:	02e787b3          	mul	a5,a5,a4
    314e:	06c2                	slli	a3,a3,0x10
    3150:	86c1                	srai	a3,a3,0x10
    3152:	4198                	lw	a4,0(a1)
    3154:	0406d563          	bgez	a3,319e <USART_Init+0xc6>
    3158:	0706                	slli	a4,a4,0x1
    315a:	00c45603          	lhu	a2,12(s0)
    315e:	0642                	slli	a2,a2,0x10
    3160:	02e7d7b3          	divu	a5,a5,a4
    3164:	06400713          	li	a4,100
    3168:	8641                	srai	a2,a2,0x10
    316a:	02e7d6b3          	divu	a3,a5,a4
    316e:	02e7f7b3          	remu	a5,a5,a4
    3172:	0692                	slli	a3,a3,0x4
    3174:	02065763          	bgez	a2,31a2 <USART_Init+0xca>
    3178:	078e                	slli	a5,a5,0x3
    317a:	03278793          	addi	a5,a5,50
    317e:	02e7d7b3          	divu	a5,a5,a4
    3182:	0077f713          	andi	a4,a5,7
    3186:	00d767b3          	or	a5,a4,a3
    318a:	07c2                	slli	a5,a5,0x10
    318c:	83c1                	srli	a5,a5,0x10
    318e:	00f41423          	sh	a5,8(s0)
    3192:	50f2                	lw	ra,60(sp)
    3194:	5462                	lw	s0,56(sp)
    3196:	6121                	addi	sp,sp,64
    3198:	8082                	ret
    319a:	5792                	lw	a5,36(sp)
    319c:	b765                	j	3144 <USART_Init+0x6c>
    319e:	070a                	slli	a4,a4,0x2
    31a0:	bf6d                	j	315a <USART_Init+0x82>
    31a2:	0792                	slli	a5,a5,0x4
    31a4:	03278793          	addi	a5,a5,50
    31a8:	02e7d7b3          	divu	a5,a5,a4
    31ac:	8bbd                	andi	a5,a5,15
    31ae:	8fd5                	or	a5,a5,a3
    31b0:	bfe9                	j	318a <USART_Init+0xb2>

000031b2 <USART_Cmd>:
    31b2:	c981                	beqz	a1,31c2 <USART_Cmd+0x10>
    31b4:	00c55783          	lhu	a5,12(a0)
    31b8:	6709                	lui	a4,0x2
    31ba:	8fd9                	or	a5,a5,a4
    31bc:	00f51623          	sh	a5,12(a0)
    31c0:	8082                	ret
    31c2:	00c55703          	lhu	a4,12(a0)
    31c6:	77f9                	lui	a5,0xffffe
    31c8:	17fd                	addi	a5,a5,-1
    31ca:	8ff9                	and	a5,a5,a4
    31cc:	bfc5                	j	31bc <USART_Cmd+0xa>

000031ce <USART_ITConfig>:
    31ce:	0ff5f713          	andi	a4,a1,255
    31d2:	4785                	li	a5,1
    31d4:	8315                	srli	a4,a4,0x5
    31d6:	00b795b3          	sll	a1,a5,a1
    31da:	00f71963          	bne	a4,a5,31ec <USART_ITConfig+0x1e>
    31de:	00c50793          	addi	a5,a0,12
    31e2:	4398                	lw	a4,0(a5)
    31e4:	ce01                	beqz	a2,31fc <USART_ITConfig+0x2e>
    31e6:	8dd9                	or	a1,a1,a4
    31e8:	c38c                	sw	a1,0(a5)
    31ea:	8082                	ret
    31ec:	4689                	li	a3,2
    31ee:	01450793          	addi	a5,a0,20
    31f2:	fed718e3          	bne	a4,a3,31e2 <USART_ITConfig+0x14>
    31f6:	01050793          	addi	a5,a0,16
    31fa:	b7e5                	j	31e2 <USART_ITConfig+0x14>
    31fc:	fff5c593          	not	a1,a1
    3200:	8df9                	and	a1,a1,a4
    3202:	b7dd                	j	31e8 <USART_ITConfig+0x1a>

00003204 <USART_SendData>:
    3204:	1ff5f593          	andi	a1,a1,511
    3208:	00b51223          	sh	a1,4(a0)
    320c:	8082                	ret

0000320e <USART_GetFlagStatus>:
    320e:	00055503          	lhu	a0,0(a0)
    3212:	8d6d                	and	a0,a0,a1
    3214:	00a03533          	snez	a0,a0
    3218:	8082                	ret

0000321a <USART_GetITStatus>:
    321a:	0ff5f713          	andi	a4,a1,255
    321e:	4685                	li	a3,1
    3220:	8315                	srli	a4,a4,0x5
    3222:	00b697b3          	sll	a5,a3,a1
    3226:	02d71363          	bne	a4,a3,324c <USART_GetITStatus+0x32>
    322a:	00c55703          	lhu	a4,12(a0)
    322e:	8ff9                	and	a5,a5,a4
    3230:	00055703          	lhu	a4,0(a0)
    3234:	4501                	li	a0,0
    3236:	0742                	slli	a4,a4,0x10
    3238:	8341                	srli	a4,a4,0x10
    323a:	cb81                	beqz	a5,324a <USART_GetITStatus+0x30>
    323c:	4505                	li	a0,1
    323e:	81a1                	srli	a1,a1,0x8
    3240:	00b515b3          	sll	a1,a0,a1
    3244:	8f6d                	and	a4,a4,a1
    3246:	00e03533          	snez	a0,a4
    324a:	8082                	ret
    324c:	4689                	li	a3,2
    324e:	00d71563          	bne	a4,a3,3258 <USART_GetITStatus+0x3e>
    3252:	01055703          	lhu	a4,16(a0)
    3256:	bfe1                	j	322e <USART_GetITStatus+0x14>
    3258:	01455703          	lhu	a4,20(a0)
    325c:	bfc9                	j	322e <USART_GetITStatus+0x14>

0000325e <USART_ClearITPendingBit>:
    325e:	81a1                	srli	a1,a1,0x8
    3260:	4785                	li	a5,1
    3262:	00b797b3          	sll	a5,a5,a1
    3266:	fff7c793          	not	a5,a5
    326a:	07c2                	slli	a5,a5,0x10
    326c:	83c1                	srli	a5,a5,0x10
    326e:	00f51023          	sh	a5,0(a0)
    3272:	8082                	ret

00003274 <DevEP1_IN_Deal>:
    3274:	500007b7          	lui	a5,0x50000
    3278:	02a79a23          	sh	a0,52(a5) # 50000034 <_eusrstack+0x2fff8034>
    327c:	0367c703          	lbu	a4,54(a5)
    3280:	0fc77713          	andi	a4,a4,252
    3284:	02e78b23          	sb	a4,54(a5)
    3288:	8082                	ret

0000328a <DevEP2_IN_Deal>:
    328a:	500007b7          	lui	a5,0x50000
    328e:	02a79c23          	sh	a0,56(a5) # 50000038 <_eusrstack+0x2fff8038>
    3292:	03a7c703          	lbu	a4,58(a5)
    3296:	0fc77713          	andi	a4,a4,252
    329a:	02e78d23          	sb	a4,58(a5)
    329e:	8082                	ret

000032a0 <DevEP1_OUT_Deal>:
    32a0:	4781                	li	a5,0
    32a2:	20006637          	lui	a2,0x20006
    32a6:	0ff7f713          	andi	a4,a5,255
    32aa:	00a76363          	bltu	a4,a0,32b0 <DevEP1_OUT_Deal+0x10>
    32ae:	b7d9                	j	3274 <DevEP1_IN_Deal>
    32b0:	ad862703          	lw	a4,-1320(a2) # 20005ad8 <pEP1_RAM_Addr>
    32b4:	973e                	add	a4,a4,a5
    32b6:	00074683          	lbu	a3,0(a4) # 2000 <uart_interrupt_init+0x44>
    32ba:	0785                	addi	a5,a5,1
    32bc:	fff6c693          	not	a3,a3
    32c0:	04d70023          	sb	a3,64(a4)
    32c4:	b7cd                	j	32a6 <DevEP1_OUT_Deal+0x6>

000032c6 <DevEP2_OUT_Deal>:
    32c6:	4781                	li	a5,0
    32c8:	20006637          	lui	a2,0x20006
    32cc:	0ff7f713          	andi	a4,a5,255
    32d0:	00a76363          	bltu	a4,a0,32d6 <DevEP2_OUT_Deal+0x10>
    32d4:	bf5d                	j	328a <DevEP2_IN_Deal>
    32d6:	a0462703          	lw	a4,-1532(a2) # 20005a04 <pEP2_RAM_Addr>
    32da:	973e                	add	a4,a4,a5
    32dc:	00074683          	lbu	a3,0(a4)
    32e0:	0785                	addi	a5,a5,1
    32e2:	fff6c693          	not	a3,a3
    32e6:	04d70023          	sb	a3,64(a4)
    32ea:	b7cd                	j	32cc <DevEP2_OUT_Deal+0x6>

000032ec <OTG_FS_IRQHandler>:
    32ec:	500007b7          	lui	a5,0x50000
    32f0:	0067c703          	lbu	a4,6(a5) # 50000006 <_eusrstack+0x2fff8006>
    32f4:	0ff77713          	andi	a4,a4,255
    32f8:	00277693          	andi	a3,a4,2
    32fc:	6a068f63          	beqz	a3,39ba <OTG_FS_IRQHandler+0x6ce>
    3300:	1101                	addi	sp,sp,-32
    3302:	ce22                	sw	s0,28(sp)
    3304:	cc26                	sw	s1,24(sp)
    3306:	ca4a                	sw	s2,20(sp)
    3308:	c84e                	sw	s3,16(sp)
    330a:	c652                	sw	s4,12(sp)
    330c:	c456                	sw	s5,8(sp)
    330e:	0077c703          	lbu	a4,7(a5)
    3312:	02000693          	li	a3,32
    3316:	03077713          	andi	a4,a4,48
    331a:	4ed70a63          	beq	a4,a3,380e <OTG_FS_IRQHandler+0x522>
    331e:	03000613          	li	a2,48
    3322:	04c70163          	beq	a4,a2,3364 <OTG_FS_IRQHandler+0x78>
    3326:	24071363          	bnez	a4,356c <OTG_FS_IRQHandler+0x280>
    332a:	0077c703          	lbu	a4,7(a5)
    332e:	4605                	li	a2,1
    3330:	03f77713          	andi	a4,a4,63
    3334:	66c70163          	beq	a4,a2,3996 <OTG_FS_IRQHandler+0x6aa>
    3338:	5c070763          	beqz	a4,3906 <OTG_FS_IRQHandler+0x61a>
    333c:	4689                	li	a3,2
    333e:	22d71763          	bne	a4,a3,356c <OTG_FS_IRQHandler+0x280>
    3342:	0077c703          	lbu	a4,7(a5)
    3346:	04077713          	andi	a4,a4,64
    334a:	22070163          	beqz	a4,356c <OTG_FS_IRQHandler+0x280>
    334e:	03b7c703          	lbu	a4,59(a5)
    3352:	00474713          	xori	a4,a4,4
    3356:	02e78da3          	sb	a4,59(a5)
    335a:	4788                	lw	a0,8(a5)
    335c:	0ff57513          	andi	a0,a0,255
    3360:	379d                	jal	32c6 <DevEP2_OUT_Deal>
    3362:	a429                	j	356c <OTG_FS_IRQHandler+0x280>
    3364:	4719                	li	a4,6
    3366:	02e78923          	sb	a4,50(a5)
    336a:	4711                	li	a4,4
    336c:	02e789a3          	sb	a4,51(a5)
    3370:	200067b7          	lui	a5,0x20006
    3374:	a087a483          	lw	s1,-1528(a5) # 20005a08 <pEP0_RAM_Addr>
    3378:	20006437          	lui	s0,0x20006
    337c:	0074c783          	lbu	a5,7(s1)
    3380:	0064c703          	lbu	a4,6(s1)
    3384:	07a2                	slli	a5,a5,0x8
    3386:	8fd9                	or	a5,a5,a4
    3388:	9ef41e23          	sh	a5,-1540(s0) # 200059fc <SetupReqLen>
    338c:	0014c703          	lbu	a4,1(s1)
    3390:	200067b7          	lui	a5,0x20006
    3394:	9ee78f23          	sb	a4,-1538(a5) # 200059fe <SetupReqCode>
    3398:	0004ca03          	lbu	s4,0(s1)
    339c:	060a7713          	andi	a4,s4,96
    33a0:	0e070f63          	beqz	a4,349e <OTG_FS_IRQHandler+0x1b2>
    33a4:	9fe7c703          	lbu	a4,-1538(a5)
    33a8:	02077713          	andi	a4,a4,32
    33ac:	cf19                	beqz	a4,33ca <OTG_FS_IRQHandler+0xde>
    33ae:	9fe7c783          	lbu	a5,-1538(a5)
    33b2:	02100713          	li	a4,33
    33b6:	0ff7f793          	andi	a5,a5,255
    33ba:	00e78a63          	beq	a5,a4,33ce <OTG_FS_IRQHandler+0xe2>
    33be:	02200713          	li	a4,34
    33c2:	00e78463          	beq	a5,a4,33ca <OTG_FS_IRQHandler+0xde>
    33c6:	18d79c63          	bne	a5,a3,355e <OTG_FS_IRQHandler+0x272>
    33ca:	4901                	li	s2,0
    33cc:	a0a1                	j	3414 <OTG_FS_IRQHandler+0x128>
    33ce:	81018793          	addi	a5,gp,-2032 # 20000110 <LineCoding>
    33d2:	200069b7          	lui	s3,0x20006
    33d6:	a0f9a023          	sw	a5,-1536(s3) # 20005a00 <pDescr>
    33da:	9fc45783          	lhu	a5,-1540(s0)
    33de:	471d                	li	a4,7
    33e0:	4921                	li	s2,8
    33e2:	00f76663          	bltu	a4,a5,33ee <OTG_FS_IRQHandler+0x102>
    33e6:	9fc45903          	lhu	s2,-1540(s0)
    33ea:	0ff97913          	andi	s2,s2,255
    33ee:	864a                	mv	a2,s2
    33f0:	81018593          	addi	a1,gp,-2032 # 20000110 <LineCoding>
    33f4:	8526                	mv	a0,s1
    33f6:	788000ef          	jal	ra,3b7e <memcpy>
    33fa:	9fc45783          	lhu	a5,-1540(s0)
    33fe:	412787b3          	sub	a5,a5,s2
    3402:	07c2                	slli	a5,a5,0x10
    3404:	83c1                	srli	a5,a5,0x10
    3406:	9ef41e23          	sh	a5,-1540(s0)
    340a:	a009a783          	lw	a5,-1536(s3)
    340e:	97ca                	add	a5,a5,s2
    3410:	a0f9a023          	sw	a5,-1536(s3)
    3414:	9fc45783          	lhu	a5,-1540(s0)
    3418:	0942                	slli	s2,s2,0x10
    341a:	01095913          	srli	s2,s2,0x10
    341e:	00f97463          	bgeu	s2,a5,3426 <OTG_FS_IRQHandler+0x13a>
    3422:	9f241e23          	sh	s2,-1540(s0)
    3426:	84418793          	addi	a5,gp,-1980 # 20000144 <USBHD_Dev_SetupReqLen>
    342a:	0007d703          	lhu	a4,0(a5)
    342e:	469d                	li	a3,7
    3430:	44a1                	li	s1,8
    3432:	00e6e663          	bltu	a3,a4,343e <OTG_FS_IRQHandler+0x152>
    3436:	0007d483          	lhu	s1,0(a5)
    343a:	0ff4f493          	andi	s1,s1,255
    343e:	200069b7          	lui	s3,0x20006
    3442:	a009a903          	lw	s2,-1536(s3) # 20005a00 <pDescr>
    3446:	20006537          	lui	a0,0x20006
    344a:	8626                	mv	a2,s1
    344c:	85ca                	mv	a1,s2
    344e:	a8c50513          	addi	a0,a0,-1396 # 20005a8c <EP0_DatabufHD>
    3452:	94ca                	add	s1,s1,s2
    3454:	272d                	jal	3b7e <memcpy>
    3456:	a099a023          	sw	s1,-1536(s3)
    345a:	0a62                	slli	s4,s4,0x18
    345c:	418a5a13          	srai	s4,s4,0x18
    3460:	4781                	li	a5,0
    3462:	020a5263          	bgez	s4,3486 <OTG_FS_IRQHandler+0x19a>
    3466:	9fc45703          	lhu	a4,-1540(s0)
    346a:	47a1                	li	a5,8
    346c:	00e7e663          	bltu	a5,a4,3478 <OTG_FS_IRQHandler+0x18c>
    3470:	9fc45783          	lhu	a5,-1540(s0)
    3474:	0ff7f793          	andi	a5,a5,255
    3478:	9fc45703          	lhu	a4,-1540(s0)
    347c:	8f1d                	sub	a4,a4,a5
    347e:	0742                	slli	a4,a4,0x10
    3480:	8341                	srli	a4,a4,0x10
    3482:	9ee41e23          	sh	a4,-1540(s0)
    3486:	07c2                	slli	a5,a5,0x10
    3488:	50000737          	lui	a4,0x50000
    348c:	83c1                	srli	a5,a5,0x10
    348e:	02f71823          	sh	a5,48(a4) # 50000030 <_eusrstack+0x2fff8030>
    3492:	4791                	li	a5,4
    3494:	02f70923          	sb	a5,50(a4)
    3498:	02f709a3          	sb	a5,51(a4)
    349c:	a8c1                	j	356c <OTG_FS_IRQHandler+0x280>
    349e:	9fe7c783          	lbu	a5,-1538(a5)
    34a2:	472d                	li	a4,11
    34a4:	0ff7f793          	andi	a5,a5,255
    34a8:	0af76b63          	bltu	a4,a5,355e <OTG_FS_IRQHandler+0x272>
    34ac:	6715                	lui	a4,0x5
    34ae:	078a                	slli	a5,a5,0x2
    34b0:	5a870713          	addi	a4,a4,1448 # 55a8 <UARTN+0x20>
    34b4:	97ba                	add	a5,a5,a4
    34b6:	439c                	lw	a5,0(a5)
    34b8:	8782                	jr	a5
    34ba:	0034c783          	lbu	a5,3(s1)
    34be:	0024c703          	lbu	a4,2(s1)
    34c2:	468d                	li	a3,3
    34c4:	07a2                	slli	a5,a5,0x8
    34c6:	8fd9                	or	a5,a5,a4
    34c8:	0087d713          	srli	a4,a5,0x8
    34cc:	200069b7          	lui	s3,0x20006
    34d0:	0cd70563          	beq	a4,a3,359a <OTG_FS_IRQHandler+0x2ae>
    34d4:	00e6ec63          	bltu	a3,a4,34ec <OTG_FS_IRQHandler+0x200>
    34d8:	4785                	li	a5,1
    34da:	02f70b63          	beq	a4,a5,3510 <OTG_FS_IRQHandler+0x224>
    34de:	4789                	li	a5,2
    34e0:	0af70463          	beq	a4,a5,3588 <OTG_FS_IRQHandler+0x29c>
    34e4:	0ff00913          	li	s2,255
    34e8:	4781                	li	a5,0
    34ea:	a815                	j	351e <OTG_FS_IRQHandler+0x232>
    34ec:	479d                	li	a5,7
    34ee:	10f70863          	beq	a4,a5,35fe <OTG_FS_IRQHandler+0x312>
    34f2:	02200793          	li	a5,34
    34f6:	0ef70c63          	beq	a4,a5,35ee <OTG_FS_IRQHandler+0x302>
    34fa:	4799                	li	a5,6
    34fc:	fef714e3          	bne	a4,a5,34e4 <OTG_FS_IRQHandler+0x1f8>
    3500:	6795                	lui	a5,0x5
    3502:	67878793          	addi	a5,a5,1656 # 5678 <MyUSBQUADescHD>
    3506:	a0f9a023          	sw	a5,-1536(s3) # 20005a00 <pDescr>
    350a:	4901                	li	s2,0
    350c:	47a9                	li	a5,10
    350e:	a801                	j	351e <OTG_FS_IRQHandler+0x232>
    3510:	6795                	lui	a5,0x5
    3512:	61c78793          	addi	a5,a5,1564 # 561c <MyDevDescrHD>
    3516:	a0f9a023          	sw	a5,-1536(s3)
    351a:	4901                	li	s2,0
    351c:	47c9                	li	a5,18
    351e:	9fc45703          	lhu	a4,-1540(s0)
    3522:	07c2                	slli	a5,a5,0x10
    3524:	83c1                	srli	a5,a5,0x10
    3526:	00e7f463          	bgeu	a5,a4,352e <OTG_FS_IRQHandler+0x242>
    352a:	9ef41e23          	sh	a5,-1540(s0)
    352e:	9fc45783          	lhu	a5,-1540(s0)
    3532:	471d                	li	a4,7
    3534:	4aa1                	li	s5,8
    3536:	00f76663          	bltu	a4,a5,3542 <OTG_FS_IRQHandler+0x256>
    353a:	9fc45a83          	lhu	s5,-1540(s0)
    353e:	0ffafa93          	andi	s5,s5,255
    3542:	a009a583          	lw	a1,-1536(s3)
    3546:	8656                	mv	a2,s5
    3548:	8526                	mv	a0,s1
    354a:	2d15                	jal	3b7e <memcpy>
    354c:	a009a783          	lw	a5,-1536(s3)
    3550:	9abe                	add	s5,s5,a5
    3552:	a159a023          	sw	s5,-1536(s3)
    3556:	0ff00793          	li	a5,255
    355a:	f0f910e3          	bne	s2,a5,345a <OTG_FS_IRQHandler+0x16e>
    355e:	500007b7          	lui	a5,0x50000
    3562:	471d                	li	a4,7
    3564:	02e78923          	sb	a4,50(a5) # 50000032 <_eusrstack+0x2fff8032>
    3568:	02e789a3          	sb	a4,51(a5)
    356c:	500007b7          	lui	a5,0x50000
    3570:	4709                	li	a4,2
    3572:	00e78323          	sb	a4,6(a5) # 50000006 <_eusrstack+0x2fff8006>
    3576:	4472                	lw	s0,28(sp)
    3578:	44e2                	lw	s1,24(sp)
    357a:	4952                	lw	s2,20(sp)
    357c:	49c2                	lw	s3,16(sp)
    357e:	4a32                	lw	s4,12(sp)
    3580:	4aa2                	lw	s5,8(sp)
    3582:	6105                	addi	sp,sp,32
    3584:	30200073          	mret
    3588:	6795                	lui	a5,0x5
    358a:	5d878793          	addi	a5,a5,1496 # 55d8 <MyCfgDescrHD>
    358e:	a0f9a023          	sw	a5,-1536(s3)
    3592:	4901                	li	s2,0
    3594:	04300793          	li	a5,67
    3598:	b759                	j	351e <OTG_FS_IRQHandler+0x232>
    359a:	0ff7f793          	andi	a5,a5,255
    359e:	4685                	li	a3,1
    35a0:	02d78763          	beq	a5,a3,35ce <OTG_FS_IRQHandler+0x2e2>
    35a4:	cf91                	beqz	a5,35c0 <OTG_FS_IRQHandler+0x2d4>
    35a6:	4689                	li	a3,2
    35a8:	02d78b63          	beq	a5,a3,35de <OTG_FS_IRQHandler+0x2f2>
    35ac:	f2e79ce3          	bne	a5,a4,34e4 <OTG_FS_IRQHandler+0x1f8>
    35b0:	6795                	lui	a5,0x5
    35b2:	66078793          	addi	a5,a5,1632 # 5660 <MySerNumInfoHD>
    35b6:	a0f9a023          	sw	a5,-1536(s3)
    35ba:	4901                	li	s2,0
    35bc:	47d9                	li	a5,22
    35be:	b785                	j	351e <OTG_FS_IRQHandler+0x232>
    35c0:	82818793          	addi	a5,gp,-2008 # 20000128 <MyLangDescrHD>
    35c4:	a0f9a023          	sw	a5,-1536(s3)
    35c8:	4901                	li	s2,0
    35ca:	4791                	li	a5,4
    35cc:	bf89                	j	351e <OTG_FS_IRQHandler+0x232>
    35ce:	6795                	lui	a5,0x5
    35d0:	63078793          	addi	a5,a5,1584 # 5630 <MyManuInfoHD>
    35d4:	a0f9a023          	sw	a5,-1536(s3)
    35d8:	4901                	li	s2,0
    35da:	47b9                	li	a5,14
    35dc:	b789                	j	351e <OTG_FS_IRQHandler+0x232>
    35de:	6795                	lui	a5,0x5
    35e0:	64078793          	addi	a5,a5,1600 # 5640 <MyProdInfoHD>
    35e4:	a0f9a023          	sw	a5,-1536(s3)
    35e8:	4901                	li	s2,0
    35ea:	47b1                	li	a5,12
    35ec:	bf0d                	j	351e <OTG_FS_IRQHandler+0x232>
    35ee:	6795                	lui	a5,0x5
    35f0:	64c78793          	addi	a5,a5,1612 # 564c <MyReportDescHD>
    35f4:	a0f9a023          	sw	a5,-1536(s3)
    35f8:	4901                	li	s2,0
    35fa:	47d1                	li	a5,20
    35fc:	b70d                	j	351e <OTG_FS_IRQHandler+0x232>
    35fe:	8171c783          	lbu	a5,-2025(gp) # 20000117 <USBHD_Dev_Speed>
    3602:	0ff7f793          	andi	a5,a5,255
    3606:	ec079fe3          	bnez	a5,34e4 <OTG_FS_IRQHandler+0x1f8>
    360a:	20000937          	lui	s2,0x20000
    360e:	05c90913          	addi	s2,s2,92 # 2000005c <TAB_USB_FS_OSC_DESC>
    3612:	6595                	lui	a1,0x5
    3614:	04100613          	li	a2,65
    3618:	5da58593          	addi	a1,a1,1498 # 55da <MyCfgDescrHD+0x2>
    361c:	00290513          	addi	a0,s2,2
    3620:	2bb9                	jal	3b7e <memcpy>
    3622:	a129a023          	sw	s2,-1536(s3)
    3626:	b7b5                	j	3592 <OTG_FS_IRQHandler+0x2a6>
    3628:	0024c783          	lbu	a5,2(s1)
    362c:	9ef41e23          	sh	a5,-1540(s0)
    3630:	b52d                	j	345a <OTG_FS_IRQHandler+0x16e>
    3632:	200067b7          	lui	a5,0x20006
    3636:	9787c783          	lbu	a5,-1672(a5) # 20005978 <DevConfig>
    363a:	00f48023          	sb	a5,0(s1)
    363e:	9fc45703          	lhu	a4,-1540(s0)
    3642:	4785                	li	a5,1
    3644:	fee7e4e3          	bltu	a5,a4,362c <OTG_FS_IRQHandler+0x340>
    3648:	bd09                	j	345a <OTG_FS_IRQHandler+0x16e>
    364a:	0024c703          	lbu	a4,2(s1)
    364e:	200067b7          	lui	a5,0x20006
    3652:	96e78c23          	sb	a4,-1672(a5) # 20005978 <DevConfig>
    3656:	b511                	j	345a <OTG_FS_IRQHandler+0x16e>
    3658:	01fa7713          	andi	a4,s4,31
    365c:	4789                	li	a5,2
    365e:	f0f710e3          	bne	a4,a5,355e <OTG_FS_IRQHandler+0x272>
    3662:	0044c783          	lbu	a5,4(s1)
    3666:	04e78363          	beq	a5,a4,36ac <OTG_FS_IRQHandler+0x3c0>
    366a:	00f76e63          	bltu	a4,a5,3686 <OTG_FS_IRQHandler+0x39a>
    366e:	4705                	li	a4,1
    3670:	eee797e3          	bne	a5,a4,355e <OTG_FS_IRQHandler+0x272>
    3674:	50000737          	lui	a4,0x50000
    3678:	03774783          	lbu	a5,55(a4) # 50000037 <_eusrstack+0x2fff8037>
    367c:	0f87f793          	andi	a5,a5,248
    3680:	02f70ba3          	sb	a5,55(a4)
    3684:	bbd9                	j	345a <OTG_FS_IRQHandler+0x16e>
    3686:	08100713          	li	a4,129
    368a:	02e78a63          	beq	a5,a4,36be <OTG_FS_IRQHandler+0x3d2>
    368e:	08200713          	li	a4,130
    3692:	ece796e3          	bne	a5,a4,355e <OTG_FS_IRQHandler+0x272>
    3696:	50000737          	lui	a4,0x50000
    369a:	03a74783          	lbu	a5,58(a4) # 5000003a <_eusrstack+0x2fff803a>
    369e:	0f87f793          	andi	a5,a5,248
    36a2:	0027e793          	ori	a5,a5,2
    36a6:	02f70d23          	sb	a5,58(a4)
    36aa:	bb45                	j	345a <OTG_FS_IRQHandler+0x16e>
    36ac:	50000737          	lui	a4,0x50000
    36b0:	03b74783          	lbu	a5,59(a4) # 5000003b <_eusrstack+0x2fff803b>
    36b4:	0f87f793          	andi	a5,a5,248
    36b8:	02f70da3          	sb	a5,59(a4)
    36bc:	bb79                	j	345a <OTG_FS_IRQHandler+0x16e>
    36be:	50000737          	lui	a4,0x50000
    36c2:	03674783          	lbu	a5,54(a4) # 50000036 <_eusrstack+0x2fff8036>
    36c6:	0f87f793          	andi	a5,a5,248
    36ca:	0027e793          	ori	a5,a5,2
    36ce:	02f70b23          	sb	a5,54(a4)
    36d2:	b361                	j	345a <OTG_FS_IRQHandler+0x16e>
    36d4:	200067b7          	lui	a5,0x20006
    36d8:	a8c7c703          	lbu	a4,-1396(a5) # 20005a8c <EP0_DatabufHD>
    36dc:	8b7d                	andi	a4,a4,31
    36de:	eb19                	bnez	a4,36f4 <OTG_FS_IRQHandler+0x408>
    36e0:	a8c78793          	addi	a5,a5,-1396
    36e4:	0027d783          	lhu	a5,2(a5)
    36e8:	4705                	li	a4,1
    36ea:	e6e79ae3          	bne	a5,a4,355e <OTG_FS_IRQHandler+0x272>
    36ee:	84f18323          	sb	a5,-1978(gp) # 20000146 <USBHD_Dev_SleepStatus>
    36f2:	b3a5                	j	345a <OTG_FS_IRQHandler+0x16e>
    36f4:	4689                	li	a3,2
    36f6:	e6d714e3          	bne	a4,a3,355e <OTG_FS_IRQHandler+0x272>
    36fa:	a8c78793          	addi	a5,a5,-1396
    36fe:	0027d683          	lhu	a3,2(a5)
    3702:	e4069ee3          	bnez	a3,355e <OTG_FS_IRQHandler+0x272>
    3706:	0047c783          	lbu	a5,4(a5)
    370a:	04e78563          	beq	a5,a4,3754 <OTG_FS_IRQHandler+0x468>
    370e:	02f76063          	bltu	a4,a5,372e <OTG_FS_IRQHandler+0x442>
    3712:	4705                	li	a4,1
    3714:	e4e795e3          	bne	a5,a4,355e <OTG_FS_IRQHandler+0x272>
    3718:	50000737          	lui	a4,0x50000
    371c:	03774783          	lbu	a5,55(a4) # 50000037 <_eusrstack+0x2fff8037>
    3720:	0fc7f793          	andi	a5,a5,252
    3724:	02f70ba3          	sb	a5,55(a4)
    3728:	0037e793          	ori	a5,a5,3
    372c:	bf91                	j	3680 <OTG_FS_IRQHandler+0x394>
    372e:	08100713          	li	a4,129
    3732:	02e78c63          	beq	a5,a4,376a <OTG_FS_IRQHandler+0x47e>
    3736:	08200713          	li	a4,130
    373a:	e2e792e3          	bne	a5,a4,355e <OTG_FS_IRQHandler+0x272>
    373e:	50000737          	lui	a4,0x50000
    3742:	03a74783          	lbu	a5,58(a4) # 5000003a <_eusrstack+0x2fff803a>
    3746:	0fc7f793          	andi	a5,a5,252
    374a:	02f70d23          	sb	a5,58(a4)
    374e:	0037e793          	ori	a5,a5,3
    3752:	bf91                	j	36a6 <OTG_FS_IRQHandler+0x3ba>
    3754:	50000737          	lui	a4,0x50000
    3758:	03b74783          	lbu	a5,59(a4) # 5000003b <_eusrstack+0x2fff803b>
    375c:	0fc7f793          	andi	a5,a5,252
    3760:	02f70da3          	sb	a5,59(a4)
    3764:	0037e793          	ori	a5,a5,3
    3768:	bf81                	j	36b8 <OTG_FS_IRQHandler+0x3cc>
    376a:	50000737          	lui	a4,0x50000
    376e:	03674783          	lbu	a5,54(a4) # 50000036 <_eusrstack+0x2fff8036>
    3772:	0fc7f793          	andi	a5,a5,252
    3776:	02f70b23          	sb	a5,54(a4)
    377a:	0037e793          	ori	a5,a5,3
    377e:	bf81                	j	36ce <OTG_FS_IRQHandler+0x3e2>
    3780:	00048023          	sb	zero,0(s1)
    3784:	bd6d                	j	363e <OTG_FS_IRQHandler+0x352>
    3786:	200067b7          	lui	a5,0x20006
    378a:	a8078623          	sb	zero,-1396(a5) # 20005a8c <EP0_DatabufHD>
    378e:	84418793          	addi	a5,gp,-1980 # 20000144 <USBHD_Dev_SetupReqLen>
    3792:	0007d683          	lhu	a3,0(a5)
    3796:	4705                	li	a4,1
    3798:	ccd771e3          	bgeu	a4,a3,345a <OTG_FS_IRQHandler+0x16e>
    379c:	00e79023          	sh	a4,0(a5)
    37a0:	b96d                	j	345a <OTG_FS_IRQHandler+0x16e>
    37a2:	200067b7          	lui	a5,0x20006
    37a6:	a8c78713          	addi	a4,a5,-1396 # 20005a8c <EP0_DatabufHD>
    37aa:	00475703          	lhu	a4,4(a4)
    37ae:	a8079623          	sh	zero,-1396(a5)
    37b2:	08100693          	li	a3,129
    37b6:	02d71363          	bne	a4,a3,37dc <OTG_FS_IRQHandler+0x4f0>
    37ba:	50000737          	lui	a4,0x50000
    37be:	03674703          	lbu	a4,54(a4) # 50000036 <_eusrstack+0x2fff8036>
    37c2:	8b0d                	andi	a4,a4,3
    37c4:	468d                	li	a3,3
    37c6:	00d71563          	bne	a4,a3,37d0 <OTG_FS_IRQHandler+0x4e4>
    37ca:	4705                	li	a4,1
    37cc:	a8e78623          	sb	a4,-1396(a5)
    37d0:	84418793          	addi	a5,gp,-1980 # 20000144 <USBHD_Dev_SetupReqLen>
    37d4:	0007d683          	lhu	a3,0(a5)
    37d8:	4709                	li	a4,2
    37da:	bf7d                	j	3798 <OTG_FS_IRQHandler+0x4ac>
    37dc:	4685                	li	a3,1
    37de:	00d71763          	bne	a4,a3,37ec <OTG_FS_IRQHandler+0x500>
    37e2:	50000737          	lui	a4,0x50000
    37e6:	03774703          	lbu	a4,55(a4) # 50000037 <_eusrstack+0x2fff8037>
    37ea:	bfe1                	j	37c2 <OTG_FS_IRQHandler+0x4d6>
    37ec:	08200693          	li	a3,130
    37f0:	00d71763          	bne	a4,a3,37fe <OTG_FS_IRQHandler+0x512>
    37f4:	50000737          	lui	a4,0x50000
    37f8:	03a74703          	lbu	a4,58(a4) # 5000003a <_eusrstack+0x2fff803a>
    37fc:	b7d9                	j	37c2 <OTG_FS_IRQHandler+0x4d6>
    37fe:	4689                	li	a3,2
    3800:	fcd718e3          	bne	a4,a3,37d0 <OTG_FS_IRQHandler+0x4e4>
    3804:	50000737          	lui	a4,0x50000
    3808:	03b74703          	lbu	a4,59(a4) # 5000003b <_eusrstack+0x2fff803b>
    380c:	bf5d                	j	37c2 <OTG_FS_IRQHandler+0x4d6>
    380e:	0077c683          	lbu	a3,7(a5)
    3812:	02100613          	li	a2,33
    3816:	03f6f693          	andi	a3,a3,63
    381a:	0ac68a63          	beq	a3,a2,38ce <OTG_FS_IRQHandler+0x5e2>
    381e:	02200613          	li	a2,34
    3822:	0cc68363          	beq	a3,a2,38e8 <OTG_FS_IRQHandler+0x5fc>
    3826:	d4e693e3          	bne	a3,a4,356c <OTG_FS_IRQHandler+0x280>
    382a:	20006737          	lui	a4,0x20006
    382e:	9fe74703          	lbu	a4,-1538(a4) # 200059fe <SetupReqCode>
    3832:	4695                	li	a3,5
    3834:	0ff77713          	andi	a4,a4,255
    3838:	06d70563          	beq	a4,a3,38a2 <OTG_FS_IRQHandler+0x5b6>
    383c:	4699                	li	a3,6
    383e:	08d71563          	bne	a4,a3,38c8 <OTG_FS_IRQHandler+0x5dc>
    3842:	200064b7          	lui	s1,0x20006
    3846:	9fc4d783          	lhu	a5,-1540(s1) # 200059fc <SetupReqLen>
    384a:	471d                	li	a4,7
    384c:	4421                	li	s0,8
    384e:	00f76663          	bltu	a4,a5,385a <OTG_FS_IRQHandler+0x56e>
    3852:	9fc4d403          	lhu	s0,-1540(s1)
    3856:	0ff47413          	andi	s0,s0,255
    385a:	20006937          	lui	s2,0x20006
    385e:	200067b7          	lui	a5,0x20006
    3862:	a087a503          	lw	a0,-1528(a5) # 20005a08 <pEP0_RAM_Addr>
    3866:	a0092583          	lw	a1,-1536(s2) # 20005a00 <pDescr>
    386a:	8622                	mv	a2,s0
    386c:	2e09                	jal	3b7e <memcpy>
    386e:	9fc4d783          	lhu	a5,-1540(s1)
    3872:	01041713          	slli	a4,s0,0x10
    3876:	8341                	srli	a4,a4,0x10
    3878:	8f99                	sub	a5,a5,a4
    387a:	07c2                	slli	a5,a5,0x10
    387c:	83c1                	srli	a5,a5,0x10
    387e:	9ef49e23          	sh	a5,-1540(s1)
    3882:	a0092783          	lw	a5,-1536(s2)
    3886:	943e                	add	s0,s0,a5
    3888:	a0892023          	sw	s0,-1536(s2)
    388c:	500007b7          	lui	a5,0x50000
    3890:	02e79823          	sh	a4,48(a5) # 50000030 <_eusrstack+0x2fff8030>
    3894:	0327c703          	lbu	a4,50(a5)
    3898:	00474713          	xori	a4,a4,4
    389c:	02e78923          	sb	a4,50(a5)
    38a0:	b1f1                	j	356c <OTG_FS_IRQHandler+0x280>
    38a2:	0037c703          	lbu	a4,3(a5)
    38a6:	200066b7          	lui	a3,0x20006
    38aa:	9fc6d683          	lhu	a3,-1540(a3) # 200059fc <SetupReqLen>
    38ae:	08077713          	andi	a4,a4,128
    38b2:	8f55                	or	a4,a4,a3
    38b4:	0ff77713          	andi	a4,a4,255
    38b8:	00e781a3          	sb	a4,3(a5)
    38bc:	4709                	li	a4,2
    38be:	02e78923          	sb	a4,50(a5)
    38c2:	020789a3          	sb	zero,51(a5)
    38c6:	b15d                	j	356c <OTG_FS_IRQHandler+0x280>
    38c8:	02079823          	sh	zero,48(a5)
    38cc:	bfc5                	j	38bc <OTG_FS_IRQHandler+0x5d0>
    38ce:	0367c703          	lbu	a4,54(a5)
    38d2:	0fc77713          	andi	a4,a4,252
    38d6:	02e78b23          	sb	a4,54(a5)
    38da:	0367c703          	lbu	a4,54(a5)
    38de:	00474713          	xori	a4,a4,4
    38e2:	02e78b23          	sb	a4,54(a5)
    38e6:	b159                	j	356c <OTG_FS_IRQHandler+0x280>
    38e8:	03a7c703          	lbu	a4,58(a5)
    38ec:	00474713          	xori	a4,a4,4
    38f0:	02e78d23          	sb	a4,58(a5)
    38f4:	03a7c703          	lbu	a4,58(a5)
    38f8:	0fc77713          	andi	a4,a4,252
    38fc:	00276713          	ori	a4,a4,2
    3900:	02e78d23          	sb	a4,58(a5)
    3904:	b1a5                	j	356c <OTG_FS_IRQHandler+0x280>
    3906:	200067b7          	lui	a5,0x20006
    390a:	9fe7c783          	lbu	a5,-1538(a5) # 200059fe <SetupReqCode>
    390e:	04f69563          	bne	a3,a5,3958 <OTG_FS_IRQHandler+0x66c>
    3912:	20006437          	lui	s0,0x20006
    3916:	a0842783          	lw	a5,-1528(s0) # 20005a08 <pEP0_RAM_Addr>
    391a:	0017c683          	lbu	a3,1(a5)
    391e:	0007c703          	lbu	a4,0(a5)
    3922:	8f55                	or	a4,a4,a3
    3924:	0027c683          	lbu	a3,2(a5)
    3928:	8f55                	or	a4,a4,a3
    392a:	0037c683          	lbu	a3,3(a5)
    392e:	8f55                	or	a4,a4,a3
    3930:	cb05                	beqz	a4,3960 <OTG_FS_IRQHandler+0x674>
    3932:	0017c583          	lbu	a1,1(a5)
    3936:	0007c703          	lbu	a4,0(a5)
    393a:	00005537          	lui	a0,0x5
    393e:	05a2                	slli	a1,a1,0x8
    3940:	8dd9                	or	a1,a1,a4
    3942:	0027c703          	lbu	a4,2(a5)
    3946:	68450513          	addi	a0,a0,1668 # 5684 <MyUSBQUADescHD+0xc>
    394a:	0742                	slli	a4,a4,0x10
    394c:	8f4d                	or	a4,a4,a1
    394e:	01869593          	slli	a1,a3,0x18
    3952:	8dd9                	or	a1,a1,a4
    3954:	1a1000ef          	jal	ra,42f4 <iprintf>
    3958:	500007b7          	lui	a5,0x50000
    395c:	479c                	lw	a5,8(a5)
    395e:	b139                	j	356c <OTG_FS_IRQHandler+0x280>
    3960:	0067c583          	lbu	a1,6(a5) # 50000006 <_eusrstack+0x2fff8006>
    3964:	00005537          	lui	a0,0x5
    3968:	69450513          	addi	a0,a0,1684 # 5694 <MyUSBQUADescHD+0x1c>
    396c:	189000ef          	jal	ra,42f4 <iprintf>
    3970:	a0842783          	lw	a5,-1528(s0)
    3974:	00005537          	lui	a0,0x5
    3978:	6a450513          	addi	a0,a0,1700 # 56a4 <MyUSBQUADescHD+0x2c>
    397c:	0047c583          	lbu	a1,4(a5)
    3980:	175000ef          	jal	ra,42f4 <iprintf>
    3984:	a0842783          	lw	a5,-1528(s0)
    3988:	00005537          	lui	a0,0x5
    398c:	6b450513          	addi	a0,a0,1716 # 56b4 <MyUSBQUADescHD+0x3c>
    3990:	0057c583          	lbu	a1,5(a5)
    3994:	b7c1                	j	3954 <OTG_FS_IRQHandler+0x668>
    3996:	0077c703          	lbu	a4,7(a5)
    399a:	04077713          	andi	a4,a4,64
    399e:	bc0707e3          	beqz	a4,356c <OTG_FS_IRQHandler+0x280>
    39a2:	0377c703          	lbu	a4,55(a5)
    39a6:	00474713          	xori	a4,a4,4
    39aa:	02e78ba3          	sb	a4,55(a5)
    39ae:	4788                	lw	a0,8(a5)
    39b0:	0ff57513          	andi	a0,a0,255
    39b4:	8edff0ef          	jal	ra,32a0 <DevEP1_OUT_Deal>
    39b8:	be55                	j	356c <OTG_FS_IRQHandler+0x280>
    39ba:	00177693          	andi	a3,a4,1
    39be:	ca85                	beqz	a3,39ee <OTG_FS_IRQHandler+0x702>
    39c0:	000781a3          	sb	zero,3(a5)
    39c4:	020789a3          	sb	zero,51(a5)
    39c8:	02078ba3          	sb	zero,55(a5)
    39cc:	02078da3          	sb	zero,59(a5)
    39d0:	4709                	li	a4,2
    39d2:	02e78923          	sb	a4,50(a5)
    39d6:	02e78b23          	sb	a4,54(a5)
    39da:	02e78d23          	sb	a4,58(a5)
    39de:	0067c703          	lbu	a4,6(a5)
    39e2:	00176713          	ori	a4,a4,1
    39e6:	00e78323          	sb	a4,6(a5)
    39ea:	30200073          	mret
    39ee:	00477693          	andi	a3,a4,4
    39f2:	daf5                	beqz	a3,39e6 <OTG_FS_IRQHandler+0x6fa>
    39f4:	0057c703          	lbu	a4,5(a5)
    39f8:	4711                	li	a4,4
    39fa:	b7f5                	j	39e6 <OTG_FS_IRQHandler+0x6fa>

000039fc <SystemInit>:
    39fc:	400217b7          	lui	a5,0x40021
    3a00:	4398                	lw	a4,0(a5)
    3a02:	f8ff06b7          	lui	a3,0xf8ff0
    3a06:	1141                	addi	sp,sp,-16
    3a08:	00176713          	ori	a4,a4,1
    3a0c:	c398                	sw	a4,0(a5)
    3a0e:	43d8                	lw	a4,4(a5)
    3a10:	00020637          	lui	a2,0x20
    3a14:	8f75                	and	a4,a4,a3
    3a16:	c3d8                	sw	a4,4(a5)
    3a18:	4398                	lw	a4,0(a5)
    3a1a:	fef706b7          	lui	a3,0xfef70
    3a1e:	16fd                	addi	a3,a3,-1
    3a20:	8f75                	and	a4,a4,a3
    3a22:	c398                	sw	a4,0(a5)
    3a24:	4398                	lw	a4,0(a5)
    3a26:	fffc06b7          	lui	a3,0xfffc0
    3a2a:	16fd                	addi	a3,a3,-1
    3a2c:	8f75                	and	a4,a4,a3
    3a2e:	c398                	sw	a4,0(a5)
    3a30:	43d8                	lw	a4,4(a5)
    3a32:	ff8106b7          	lui	a3,0xff810
    3a36:	16fd                	addi	a3,a3,-1
    3a38:	8f75                	and	a4,a4,a3
    3a3a:	c3d8                	sw	a4,4(a5)
    3a3c:	009f0737          	lui	a4,0x9f0
    3a40:	c798                	sw	a4,8(a5)
    3a42:	c402                	sw	zero,8(sp)
    3a44:	c602                	sw	zero,12(sp)
    3a46:	4398                	lw	a4,0(a5)
    3a48:	66c1                	lui	a3,0x10
    3a4a:	8f55                	or	a4,a4,a3
    3a4c:	c398                	sw	a4,0(a5)
    3a4e:	400216b7          	lui	a3,0x40021
    3a52:	50000713          	li	a4,1280
    3a56:	429c                	lw	a5,0(a3)
    3a58:	8ff1                	and	a5,a5,a2
    3a5a:	c63e                	sw	a5,12(sp)
    3a5c:	47a2                	lw	a5,8(sp)
    3a5e:	0785                	addi	a5,a5,1
    3a60:	c43e                	sw	a5,8(sp)
    3a62:	47b2                	lw	a5,12(sp)
    3a64:	e781                	bnez	a5,3a6c <SystemInit+0x70>
    3a66:	47a2                	lw	a5,8(sp)
    3a68:	fee797e3          	bne	a5,a4,3a56 <SystemInit+0x5a>
    3a6c:	400217b7          	lui	a5,0x40021
    3a70:	439c                	lw	a5,0(a5)
    3a72:	00e79713          	slli	a4,a5,0xe
    3a76:	0a075063          	bgez	a4,3b16 <SystemInit+0x11a>
    3a7a:	4785                	li	a5,1
    3a7c:	c63e                	sw	a5,12(sp)
    3a7e:	4732                	lw	a4,12(sp)
    3a80:	4785                	li	a5,1
    3a82:	08f71863          	bne	a4,a5,3b12 <SystemInit+0x116>
    3a86:	400227b7          	lui	a5,0x40022
    3a8a:	4398                	lw	a4,0(a5)
    3a8c:	ffc106b7          	lui	a3,0xffc10
    3a90:	16fd                	addi	a3,a3,-1
    3a92:	01076713          	ori	a4,a4,16
    3a96:	c398                	sw	a4,0(a5)
    3a98:	4398                	lw	a4,0(a5)
    3a9a:	9b71                	andi	a4,a4,-4
    3a9c:	c398                	sw	a4,0(a5)
    3a9e:	4398                	lw	a4,0(a5)
    3aa0:	00276713          	ori	a4,a4,2
    3aa4:	c398                	sw	a4,0(a5)
    3aa6:	400217b7          	lui	a5,0x40021
    3aaa:	43d8                	lw	a4,4(a5)
    3aac:	c3d8                	sw	a4,4(a5)
    3aae:	43d8                	lw	a4,4(a5)
    3ab0:	c3d8                	sw	a4,4(a5)
    3ab2:	43d8                	lw	a4,4(a5)
    3ab4:	40076713          	ori	a4,a4,1024
    3ab8:	c3d8                	sw	a4,4(a5)
    3aba:	43d8                	lw	a4,4(a5)
    3abc:	8f75                	and	a4,a4,a3
    3abe:	c3d8                	sw	a4,4(a5)
    3ac0:	1ffff737          	lui	a4,0x1ffff
    3ac4:	70c72703          	lw	a4,1804(a4) # 1ffff70c <_data_lma+0x1fff9f68>
    3ac8:	01171693          	slli	a3,a4,0x11
    3acc:	43d8                	lw	a4,4(a5)
    3ace:	0406c663          	bltz	a3,3b1a <SystemInit+0x11e>
    3ad2:	003d06b7          	lui	a3,0x3d0
    3ad6:	8f55                	or	a4,a4,a3
    3ad8:	c3d8                	sw	a4,4(a5)
    3ada:	40021737          	lui	a4,0x40021
    3ade:	431c                	lw	a5,0(a4)
    3ae0:	010006b7          	lui	a3,0x1000
    3ae4:	8fd5                	or	a5,a5,a3
    3ae6:	c31c                	sw	a5,0(a4)
    3ae8:	400217b7          	lui	a5,0x40021
    3aec:	4398                	lw	a4,0(a5)
    3aee:	00671693          	slli	a3,a4,0x6
    3af2:	fe06dde3          	bgez	a3,3aec <SystemInit+0xf0>
    3af6:	43d8                	lw	a4,4(a5)
    3af8:	400216b7          	lui	a3,0x40021
    3afc:	9b71                	andi	a4,a4,-4
    3afe:	c3d8                	sw	a4,4(a5)
    3b00:	43d8                	lw	a4,4(a5)
    3b02:	00276713          	ori	a4,a4,2
    3b06:	c3d8                	sw	a4,4(a5)
    3b08:	4721                	li	a4,8
    3b0a:	42dc                	lw	a5,4(a3)
    3b0c:	8bb1                	andi	a5,a5,12
    3b0e:	fee79ee3          	bne	a5,a4,3b0a <SystemInit+0x10e>
    3b12:	0141                	addi	sp,sp,16
    3b14:	8082                	ret
    3b16:	c602                	sw	zero,12(sp)
    3b18:	b79d                	j	3a7e <SystemInit+0x82>
    3b1a:	66c1                	lui	a3,0x10
    3b1c:	bf6d                	j	3ad6 <SystemInit+0xda>

00003b1e <__assert_func>:
    3b1e:	81c18793          	addi	a5,gp,-2020 # 2000011c <_impure_ptr>
    3b22:	439c                	lw	a5,0(a5)
    3b24:	1141                	addi	sp,sp,-16
    3b26:	8832                	mv	a6,a2
    3b28:	c606                	sw	ra,12(sp)
    3b2a:	88aa                	mv	a7,a0
    3b2c:	872e                	mv	a4,a1
    3b2e:	47c8                	lw	a0,12(a5)
    3b30:	8636                	mv	a2,a3
    3b32:	00002797          	auipc	a5,0x2
    3b36:	b9678793          	addi	a5,a5,-1130 # 56c8 <MyUSBQUADescHD+0x50>
    3b3a:	00081763          	bnez	a6,3b48 <__assert_func+0x2a>
    3b3e:	00002797          	auipc	a5,0x2
    3b42:	b9678793          	addi	a5,a5,-1130 # 56d4 <MyUSBQUADescHD+0x5c>
    3b46:	883e                	mv	a6,a5
    3b48:	86c6                	mv	a3,a7
    3b4a:	00002597          	auipc	a1,0x2
    3b4e:	b8e58593          	addi	a1,a1,-1138 # 56d8 <MyUSBQUADescHD+0x60>
    3b52:	2019                	jal	3b58 <fiprintf>
    3b54:	1ad000ef          	jal	ra,4500 <abort>

00003b58 <fiprintf>:
    3b58:	7139                	addi	sp,sp,-64
    3b5a:	d432                	sw	a2,40(sp)
    3b5c:	d636                	sw	a3,44(sp)
    3b5e:	da3e                	sw	a5,52(sp)
    3b60:	d83a                	sw	a4,48(sp)
    3b62:	dc42                	sw	a6,56(sp)
    3b64:	de46                	sw	a7,60(sp)
    3b66:	81c18793          	addi	a5,gp,-2020 # 2000011c <_impure_ptr>
    3b6a:	862e                	mv	a2,a1
    3b6c:	85aa                	mv	a1,a0
    3b6e:	4388                	lw	a0,0(a5)
    3b70:	1034                	addi	a3,sp,40
    3b72:	ce06                	sw	ra,28(sp)
    3b74:	c636                	sw	a3,12(sp)
    3b76:	2225                	jal	3c9e <_vfiprintf_r>
    3b78:	40f2                	lw	ra,28(sp)
    3b7a:	6121                	addi	sp,sp,64
    3b7c:	8082                	ret

00003b7e <memcpy>:
    3b7e:	00a5c7b3          	xor	a5,a1,a0
    3b82:	8b8d                	andi	a5,a5,3
    3b84:	00c50733          	add	a4,a0,a2
    3b88:	e781                	bnez	a5,3b90 <memcpy+0x12>
    3b8a:	478d                	li	a5,3
    3b8c:	00c7ee63          	bltu	a5,a2,3ba8 <memcpy+0x2a>
    3b90:	87aa                	mv	a5,a0
    3b92:	0ae57063          	bgeu	a0,a4,3c32 <memcpy+0xb4>
    3b96:	0005c683          	lbu	a3,0(a1)
    3b9a:	0785                	addi	a5,a5,1
    3b9c:	0585                	addi	a1,a1,1
    3b9e:	fed78fa3          	sb	a3,-1(a5)
    3ba2:	fee7eae3          	bltu	a5,a4,3b96 <memcpy+0x18>
    3ba6:	8082                	ret
    3ba8:	00357693          	andi	a3,a0,3
    3bac:	87aa                	mv	a5,a0
    3bae:	ca91                	beqz	a3,3bc2 <memcpy+0x44>
    3bb0:	0005c683          	lbu	a3,0(a1)
    3bb4:	0785                	addi	a5,a5,1
    3bb6:	0585                	addi	a1,a1,1
    3bb8:	fed78fa3          	sb	a3,-1(a5)
    3bbc:	0037f693          	andi	a3,a5,3
    3bc0:	b7fd                	j	3bae <memcpy+0x30>
    3bc2:	ffc77693          	andi	a3,a4,-4
    3bc6:	fe068613          	addi	a2,a3,-32 # ffe0 <_data_lma+0xa83c>
    3bca:	06c7f063          	bgeu	a5,a2,3c2a <memcpy+0xac>
    3bce:	0005a383          	lw	t2,0(a1)
    3bd2:	0045a283          	lw	t0,4(a1)
    3bd6:	0085af83          	lw	t6,8(a1)
    3bda:	00c5af03          	lw	t5,12(a1)
    3bde:	0105ae83          	lw	t4,16(a1)
    3be2:	0145ae03          	lw	t3,20(a1)
    3be6:	0185a303          	lw	t1,24(a1)
    3bea:	01c5a883          	lw	a7,28(a1)
    3bee:	02458593          	addi	a1,a1,36
    3bf2:	0077a023          	sw	t2,0(a5)
    3bf6:	ffc5a803          	lw	a6,-4(a1)
    3bfa:	0057a223          	sw	t0,4(a5)
    3bfe:	01f7a423          	sw	t6,8(a5)
    3c02:	01e7a623          	sw	t5,12(a5)
    3c06:	01d7a823          	sw	t4,16(a5)
    3c0a:	01c7aa23          	sw	t3,20(a5)
    3c0e:	0067ac23          	sw	t1,24(a5)
    3c12:	0117ae23          	sw	a7,28(a5)
    3c16:	02478793          	addi	a5,a5,36
    3c1a:	ff07ae23          	sw	a6,-4(a5)
    3c1e:	b775                	j	3bca <memcpy+0x4c>
    3c20:	4190                	lw	a2,0(a1)
    3c22:	0791                	addi	a5,a5,4
    3c24:	0591                	addi	a1,a1,4
    3c26:	fec7ae23          	sw	a2,-4(a5)
    3c2a:	fed7ebe3          	bltu	a5,a3,3c20 <memcpy+0xa2>
    3c2e:	f6e7e4e3          	bltu	a5,a4,3b96 <memcpy+0x18>
    3c32:	8082                	ret

00003c34 <__sfputc_r>:
    3c34:	461c                	lw	a5,8(a2)
    3c36:	17fd                	addi	a5,a5,-1
    3c38:	c61c                	sw	a5,8(a2)
    3c3a:	0007d963          	bgez	a5,3c4c <__sfputc_r+0x18>
    3c3e:	4e18                	lw	a4,24(a2)
    3c40:	00e7c563          	blt	a5,a4,3c4a <__sfputc_r+0x16>
    3c44:	47a9                	li	a5,10
    3c46:	00f59363          	bne	a1,a5,3c4c <__sfputc_r+0x18>
    3c4a:	a5ed                	j	4334 <__swbuf_r>
    3c4c:	421c                	lw	a5,0(a2)
    3c4e:	852e                	mv	a0,a1
    3c50:	00178713          	addi	a4,a5,1
    3c54:	c218                	sw	a4,0(a2)
    3c56:	00b78023          	sb	a1,0(a5)
    3c5a:	8082                	ret

00003c5c <__sfputs_r>:
    3c5c:	1101                	addi	sp,sp,-32
    3c5e:	cc22                	sw	s0,24(sp)
    3c60:	ca26                	sw	s1,20(sp)
    3c62:	c84a                	sw	s2,16(sp)
    3c64:	c64e                	sw	s3,12(sp)
    3c66:	c452                	sw	s4,8(sp)
    3c68:	ce06                	sw	ra,28(sp)
    3c6a:	892a                	mv	s2,a0
    3c6c:	89ae                	mv	s3,a1
    3c6e:	8432                	mv	s0,a2
    3c70:	00d604b3          	add	s1,a2,a3
    3c74:	5a7d                	li	s4,-1
    3c76:	00941463          	bne	s0,s1,3c7e <__sfputs_r+0x22>
    3c7a:	4501                	li	a0,0
    3c7c:	a809                	j	3c8e <__sfputs_r+0x32>
    3c7e:	00044583          	lbu	a1,0(s0)
    3c82:	864e                	mv	a2,s3
    3c84:	854a                	mv	a0,s2
    3c86:	377d                	jal	3c34 <__sfputc_r>
    3c88:	0405                	addi	s0,s0,1
    3c8a:	ff4516e3          	bne	a0,s4,3c76 <__sfputs_r+0x1a>
    3c8e:	40f2                	lw	ra,28(sp)
    3c90:	4462                	lw	s0,24(sp)
    3c92:	44d2                	lw	s1,20(sp)
    3c94:	4942                	lw	s2,16(sp)
    3c96:	49b2                	lw	s3,12(sp)
    3c98:	4a22                	lw	s4,8(sp)
    3c9a:	6105                	addi	sp,sp,32
    3c9c:	8082                	ret

00003c9e <_vfiprintf_r>:
    3c9e:	7135                	addi	sp,sp,-160
    3ca0:	cd22                	sw	s0,152(sp)
    3ca2:	cb26                	sw	s1,148(sp)
    3ca4:	c94a                	sw	s2,144(sp)
    3ca6:	c74e                	sw	s3,140(sp)
    3ca8:	cf06                	sw	ra,156(sp)
    3caa:	c552                	sw	s4,136(sp)
    3cac:	c356                	sw	s5,132(sp)
    3cae:	c15a                	sw	s6,128(sp)
    3cb0:	dede                	sw	s7,124(sp)
    3cb2:	dce2                	sw	s8,120(sp)
    3cb4:	dae6                	sw	s9,116(sp)
    3cb6:	89aa                	mv	s3,a0
    3cb8:	84ae                	mv	s1,a1
    3cba:	8932                	mv	s2,a2
    3cbc:	8436                	mv	s0,a3
    3cbe:	c509                	beqz	a0,3cc8 <_vfiprintf_r+0x2a>
    3cc0:	4d1c                	lw	a5,24(a0)
    3cc2:	e399                	bnez	a5,3cc8 <_vfiprintf_r+0x2a>
    3cc4:	2a7000ef          	jal	ra,476a <__sinit>
    3cc8:	00002797          	auipc	a5,0x2
    3ccc:	a9c78793          	addi	a5,a5,-1380 # 5764 <__sf_fake_stdin>
    3cd0:	0cf49c63          	bne	s1,a5,3da8 <_vfiprintf_r+0x10a>
    3cd4:	0049a483          	lw	s1,4(s3)
    3cd8:	00c4d783          	lhu	a5,12(s1)
    3cdc:	8ba1                	andi	a5,a5,8
    3cde:	c7fd                	beqz	a5,3dcc <_vfiprintf_r+0x12e>
    3ce0:	489c                	lw	a5,16(s1)
    3ce2:	c7ed                	beqz	a5,3dcc <_vfiprintf_r+0x12e>
    3ce4:	02000793          	li	a5,32
    3ce8:	02f104a3          	sb	a5,41(sp)
    3cec:	03000793          	li	a5,48
    3cf0:	d202                	sw	zero,36(sp)
    3cf2:	02f10523          	sb	a5,42(sp)
    3cf6:	c622                	sw	s0,12(sp)
    3cf8:	02500b93          	li	s7,37
    3cfc:	00002a97          	auipc	s5,0x2
    3d00:	a0ca8a93          	addi	s5,s5,-1524 # 5708 <MyUSBQUADescHD+0x90>
    3d04:	4c05                	li	s8,1
    3d06:	4b29                	li	s6,10
    3d08:	844a                	mv	s0,s2
    3d0a:	00044783          	lbu	a5,0(s0)
    3d0e:	c399                	beqz	a5,3d14 <_vfiprintf_r+0x76>
    3d10:	0f779063          	bne	a5,s7,3df0 <_vfiprintf_r+0x152>
    3d14:	41240cb3          	sub	s9,s0,s2
    3d18:	000c8d63          	beqz	s9,3d32 <_vfiprintf_r+0x94>
    3d1c:	86e6                	mv	a3,s9
    3d1e:	864a                	mv	a2,s2
    3d20:	85a6                	mv	a1,s1
    3d22:	854e                	mv	a0,s3
    3d24:	3f25                	jal	3c5c <__sfputs_r>
    3d26:	57fd                	li	a5,-1
    3d28:	1ef50863          	beq	a0,a5,3f18 <_vfiprintf_r+0x27a>
    3d2c:	5692                	lw	a3,36(sp)
    3d2e:	96e6                	add	a3,a3,s9
    3d30:	d236                	sw	a3,36(sp)
    3d32:	00044783          	lbu	a5,0(s0)
    3d36:	1e078163          	beqz	a5,3f18 <_vfiprintf_r+0x27a>
    3d3a:	57fd                	li	a5,-1
    3d3c:	00140913          	addi	s2,s0,1
    3d40:	c802                	sw	zero,16(sp)
    3d42:	ce02                	sw	zero,28(sp)
    3d44:	ca3e                	sw	a5,20(sp)
    3d46:	cc02                	sw	zero,24(sp)
    3d48:	040109a3          	sb	zero,83(sp)
    3d4c:	d482                	sw	zero,104(sp)
    3d4e:	00094583          	lbu	a1,0(s2)
    3d52:	4615                	li	a2,5
    3d54:	8556                	mv	a0,s5
    3d56:	483000ef          	jal	ra,49d8 <memchr>
    3d5a:	00190413          	addi	s0,s2,1
    3d5e:	47c2                	lw	a5,16(sp)
    3d60:	e951                	bnez	a0,3df4 <_vfiprintf_r+0x156>
    3d62:	0107f713          	andi	a4,a5,16
    3d66:	c709                	beqz	a4,3d70 <_vfiprintf_r+0xd2>
    3d68:	02000713          	li	a4,32
    3d6c:	04e109a3          	sb	a4,83(sp)
    3d70:	0087f713          	andi	a4,a5,8
    3d74:	c709                	beqz	a4,3d7e <_vfiprintf_r+0xe0>
    3d76:	02b00713          	li	a4,43
    3d7a:	04e109a3          	sb	a4,83(sp)
    3d7e:	00094683          	lbu	a3,0(s2)
    3d82:	02a00713          	li	a4,42
    3d86:	06e68f63          	beq	a3,a4,3e04 <_vfiprintf_r+0x166>
    3d8a:	47f2                	lw	a5,28(sp)
    3d8c:	844a                	mv	s0,s2
    3d8e:	4681                	li	a3,0
    3d90:	4625                	li	a2,9
    3d92:	00044703          	lbu	a4,0(s0)
    3d96:	00140593          	addi	a1,s0,1
    3d9a:	fd070713          	addi	a4,a4,-48 # 40020fd0 <_eusrstack+0x20018fd0>
    3d9e:	0ae67863          	bgeu	a2,a4,3e4e <_vfiprintf_r+0x1b0>
    3da2:	caad                	beqz	a3,3e14 <_vfiprintf_r+0x176>
    3da4:	ce3e                	sw	a5,28(sp)
    3da6:	a0bd                	j	3e14 <_vfiprintf_r+0x176>
    3da8:	00002797          	auipc	a5,0x2
    3dac:	9dc78793          	addi	a5,a5,-1572 # 5784 <__sf_fake_stdout>
    3db0:	00f49563          	bne	s1,a5,3dba <_vfiprintf_r+0x11c>
    3db4:	0089a483          	lw	s1,8(s3)
    3db8:	b705                	j	3cd8 <_vfiprintf_r+0x3a>
    3dba:	00002797          	auipc	a5,0x2
    3dbe:	98a78793          	addi	a5,a5,-1654 # 5744 <__sf_fake_stderr>
    3dc2:	f0f49be3          	bne	s1,a5,3cd8 <_vfiprintf_r+0x3a>
    3dc6:	00c9a483          	lw	s1,12(s3)
    3dca:	b739                	j	3cd8 <_vfiprintf_r+0x3a>
    3dcc:	85a6                	mv	a1,s1
    3dce:	854e                	mv	a0,s3
    3dd0:	2515                	jal	43f4 <__swsetup_r>
    3dd2:	d909                	beqz	a0,3ce4 <_vfiprintf_r+0x46>
    3dd4:	557d                	li	a0,-1
    3dd6:	40fa                	lw	ra,156(sp)
    3dd8:	446a                	lw	s0,152(sp)
    3dda:	44da                	lw	s1,148(sp)
    3ddc:	494a                	lw	s2,144(sp)
    3dde:	49ba                	lw	s3,140(sp)
    3de0:	4a2a                	lw	s4,136(sp)
    3de2:	4a9a                	lw	s5,132(sp)
    3de4:	4b0a                	lw	s6,128(sp)
    3de6:	5bf6                	lw	s7,124(sp)
    3de8:	5c66                	lw	s8,120(sp)
    3dea:	5cd6                	lw	s9,116(sp)
    3dec:	610d                	addi	sp,sp,160
    3dee:	8082                	ret
    3df0:	0405                	addi	s0,s0,1
    3df2:	bf21                	j	3d0a <_vfiprintf_r+0x6c>
    3df4:	41550533          	sub	a0,a0,s5
    3df8:	00ac1533          	sll	a0,s8,a0
    3dfc:	8fc9                	or	a5,a5,a0
    3dfe:	c83e                	sw	a5,16(sp)
    3e00:	8922                	mv	s2,s0
    3e02:	b7b1                	j	3d4e <_vfiprintf_r+0xb0>
    3e04:	4732                	lw	a4,12(sp)
    3e06:	00470693          	addi	a3,a4,4
    3e0a:	4318                	lw	a4,0(a4)
    3e0c:	c636                	sw	a3,12(sp)
    3e0e:	02074963          	bltz	a4,3e40 <_vfiprintf_r+0x1a2>
    3e12:	ce3a                	sw	a4,28(sp)
    3e14:	00044703          	lbu	a4,0(s0)
    3e18:	02e00793          	li	a5,46
    3e1c:	04f71f63          	bne	a4,a5,3e7a <_vfiprintf_r+0x1dc>
    3e20:	00144703          	lbu	a4,1(s0)
    3e24:	02a00793          	li	a5,42
    3e28:	02f71b63          	bne	a4,a5,3e5e <_vfiprintf_r+0x1c0>
    3e2c:	47b2                	lw	a5,12(sp)
    3e2e:	0409                	addi	s0,s0,2
    3e30:	00478713          	addi	a4,a5,4
    3e34:	439c                	lw	a5,0(a5)
    3e36:	c63a                	sw	a4,12(sp)
    3e38:	0207c163          	bltz	a5,3e5a <_vfiprintf_r+0x1bc>
    3e3c:	ca3e                	sw	a5,20(sp)
    3e3e:	a835                	j	3e7a <_vfiprintf_r+0x1dc>
    3e40:	40e00733          	neg	a4,a4
    3e44:	0027e793          	ori	a5,a5,2
    3e48:	ce3a                	sw	a4,28(sp)
    3e4a:	c83e                	sw	a5,16(sp)
    3e4c:	b7e1                	j	3e14 <_vfiprintf_r+0x176>
    3e4e:	036787b3          	mul	a5,a5,s6
    3e52:	4685                	li	a3,1
    3e54:	842e                	mv	s0,a1
    3e56:	97ba                	add	a5,a5,a4
    3e58:	bf2d                	j	3d92 <_vfiprintf_r+0xf4>
    3e5a:	57fd                	li	a5,-1
    3e5c:	b7c5                	j	3e3c <_vfiprintf_r+0x19e>
    3e5e:	0405                	addi	s0,s0,1
    3e60:	ca02                	sw	zero,20(sp)
    3e62:	4681                	li	a3,0
    3e64:	4781                	li	a5,0
    3e66:	4625                	li	a2,9
    3e68:	00044703          	lbu	a4,0(s0)
    3e6c:	00140593          	addi	a1,s0,1
    3e70:	fd070713          	addi	a4,a4,-48
    3e74:	06e67863          	bgeu	a2,a4,3ee4 <_vfiprintf_r+0x246>
    3e78:	f2f1                	bnez	a3,3e3c <_vfiprintf_r+0x19e>
    3e7a:	00044583          	lbu	a1,0(s0)
    3e7e:	460d                	li	a2,3
    3e80:	00002517          	auipc	a0,0x2
    3e84:	89050513          	addi	a0,a0,-1904 # 5710 <MyUSBQUADescHD+0x98>
    3e88:	351000ef          	jal	ra,49d8 <memchr>
    3e8c:	cd11                	beqz	a0,3ea8 <_vfiprintf_r+0x20a>
    3e8e:	00002797          	auipc	a5,0x2
    3e92:	88278793          	addi	a5,a5,-1918 # 5710 <MyUSBQUADescHD+0x98>
    3e96:	8d1d                	sub	a0,a0,a5
    3e98:	04000793          	li	a5,64
    3e9c:	00a797b3          	sll	a5,a5,a0
    3ea0:	4542                	lw	a0,16(sp)
    3ea2:	0405                	addi	s0,s0,1
    3ea4:	8d5d                	or	a0,a0,a5
    3ea6:	c82a                	sw	a0,16(sp)
    3ea8:	00044583          	lbu	a1,0(s0)
    3eac:	4619                	li	a2,6
    3eae:	00002517          	auipc	a0,0x2
    3eb2:	86650513          	addi	a0,a0,-1946 # 5714 <MyUSBQUADescHD+0x9c>
    3eb6:	00140913          	addi	s2,s0,1
    3eba:	02b10423          	sb	a1,40(sp)
    3ebe:	31b000ef          	jal	ra,49d8 <memchr>
    3ec2:	c13d                	beqz	a0,3f28 <_vfiprintf_r+0x28a>
    3ec4:	ffffc797          	auipc	a5,0xffffc
    3ec8:	13c78793          	addi	a5,a5,316 # 0 <_sinit>
    3ecc:	e795                	bnez	a5,3ef8 <_vfiprintf_r+0x25a>
    3ece:	4742                	lw	a4,16(sp)
    3ed0:	47b2                	lw	a5,12(sp)
    3ed2:	10077713          	andi	a4,a4,256
    3ed6:	cf09                	beqz	a4,3ef0 <_vfiprintf_r+0x252>
    3ed8:	0791                	addi	a5,a5,4
    3eda:	c63e                	sw	a5,12(sp)
    3edc:	5792                	lw	a5,36(sp)
    3ede:	97d2                	add	a5,a5,s4
    3ee0:	d23e                	sw	a5,36(sp)
    3ee2:	b51d                	j	3d08 <_vfiprintf_r+0x6a>
    3ee4:	036787b3          	mul	a5,a5,s6
    3ee8:	4685                	li	a3,1
    3eea:	842e                	mv	s0,a1
    3eec:	97ba                	add	a5,a5,a4
    3eee:	bfad                	j	3e68 <_vfiprintf_r+0x1ca>
    3ef0:	079d                	addi	a5,a5,7
    3ef2:	9be1                	andi	a5,a5,-8
    3ef4:	07a1                	addi	a5,a5,8
    3ef6:	b7d5                	j	3eda <_vfiprintf_r+0x23c>
    3ef8:	0078                	addi	a4,sp,12
    3efa:	00000697          	auipc	a3,0x0
    3efe:	d6268693          	addi	a3,a3,-670 # 3c5c <__sfputs_r>
    3f02:	8626                	mv	a2,s1
    3f04:	080c                	addi	a1,sp,16
    3f06:	854e                	mv	a0,s3
    3f08:	00000097          	auipc	ra,0x0
    3f0c:	000000e7          	jalr	zero # 0 <_sinit>
    3f10:	57fd                	li	a5,-1
    3f12:	8a2a                	mv	s4,a0
    3f14:	fcf514e3          	bne	a0,a5,3edc <_vfiprintf_r+0x23e>
    3f18:	00c4d783          	lhu	a5,12(s1)
    3f1c:	0407f793          	andi	a5,a5,64
    3f20:	ea079ae3          	bnez	a5,3dd4 <_vfiprintf_r+0x136>
    3f24:	5512                	lw	a0,36(sp)
    3f26:	bd45                	j	3dd6 <_vfiprintf_r+0x138>
    3f28:	0078                	addi	a4,sp,12
    3f2a:	00000697          	auipc	a3,0x0
    3f2e:	d3268693          	addi	a3,a3,-718 # 3c5c <__sfputs_r>
    3f32:	8626                	mv	a2,s1
    3f34:	080c                	addi	a1,sp,16
    3f36:	854e                	mv	a0,s3
    3f38:	2a01                	jal	4048 <_printf_i>
    3f3a:	bfd9                	j	3f10 <_vfiprintf_r+0x272>

00003f3c <_printf_common>:
    3f3c:	7179                	addi	sp,sp,-48
    3f3e:	ca56                	sw	s5,20(sp)
    3f40:	499c                	lw	a5,16(a1)
    3f42:	8aba                	mv	s5,a4
    3f44:	4598                	lw	a4,8(a1)
    3f46:	d422                	sw	s0,40(sp)
    3f48:	d226                	sw	s1,36(sp)
    3f4a:	ce4e                	sw	s3,28(sp)
    3f4c:	cc52                	sw	s4,24(sp)
    3f4e:	d606                	sw	ra,44(sp)
    3f50:	d04a                	sw	s2,32(sp)
    3f52:	c85a                	sw	s6,16(sp)
    3f54:	c65e                	sw	s7,12(sp)
    3f56:	89aa                	mv	s3,a0
    3f58:	842e                	mv	s0,a1
    3f5a:	84b2                	mv	s1,a2
    3f5c:	8a36                	mv	s4,a3
    3f5e:	00e7d363          	bge	a5,a4,3f64 <_printf_common+0x28>
    3f62:	87ba                	mv	a5,a4
    3f64:	c09c                	sw	a5,0(s1)
    3f66:	04344703          	lbu	a4,67(s0)
    3f6a:	c319                	beqz	a4,3f70 <_printf_common+0x34>
    3f6c:	0785                	addi	a5,a5,1
    3f6e:	c09c                	sw	a5,0(s1)
    3f70:	401c                	lw	a5,0(s0)
    3f72:	0207f793          	andi	a5,a5,32
    3f76:	c781                	beqz	a5,3f7e <_printf_common+0x42>
    3f78:	409c                	lw	a5,0(s1)
    3f7a:	0789                	addi	a5,a5,2
    3f7c:	c09c                	sw	a5,0(s1)
    3f7e:	00042903          	lw	s2,0(s0)
    3f82:	00697913          	andi	s2,s2,6
    3f86:	00091a63          	bnez	s2,3f9a <_printf_common+0x5e>
    3f8a:	01940b13          	addi	s6,s0,25
    3f8e:	5bfd                	li	s7,-1
    3f90:	445c                	lw	a5,12(s0)
    3f92:	4098                	lw	a4,0(s1)
    3f94:	8f99                	sub	a5,a5,a4
    3f96:	04f94c63          	blt	s2,a5,3fee <_printf_common+0xb2>
    3f9a:	401c                	lw	a5,0(s0)
    3f9c:	04344683          	lbu	a3,67(s0)
    3fa0:	0207f793          	andi	a5,a5,32
    3fa4:	00d036b3          	snez	a3,a3
    3fa8:	eba5                	bnez	a5,4018 <_printf_common+0xdc>
    3faa:	04340613          	addi	a2,s0,67
    3fae:	85d2                	mv	a1,s4
    3fb0:	854e                	mv	a0,s3
    3fb2:	9a82                	jalr	s5
    3fb4:	57fd                	li	a5,-1
    3fb6:	04f50363          	beq	a0,a5,3ffc <_printf_common+0xc0>
    3fba:	401c                	lw	a5,0(s0)
    3fbc:	4611                	li	a2,4
    3fbe:	4098                	lw	a4,0(s1)
    3fc0:	8b99                	andi	a5,a5,6
    3fc2:	4454                	lw	a3,12(s0)
    3fc4:	4481                	li	s1,0
    3fc6:	00c79763          	bne	a5,a2,3fd4 <_printf_common+0x98>
    3fca:	40e684b3          	sub	s1,a3,a4
    3fce:	0004d363          	bgez	s1,3fd4 <_printf_common+0x98>
    3fd2:	4481                	li	s1,0
    3fd4:	441c                	lw	a5,8(s0)
    3fd6:	4818                	lw	a4,16(s0)
    3fd8:	00f75463          	bge	a4,a5,3fe0 <_printf_common+0xa4>
    3fdc:	8f99                	sub	a5,a5,a4
    3fde:	94be                	add	s1,s1,a5
    3fe0:	4901                	li	s2,0
    3fe2:	0469                	addi	s0,s0,26
    3fe4:	5b7d                	li	s6,-1
    3fe6:	05249863          	bne	s1,s2,4036 <_printf_common+0xfa>
    3fea:	4501                	li	a0,0
    3fec:	a809                	j	3ffe <_printf_common+0xc2>
    3fee:	4685                	li	a3,1
    3ff0:	865a                	mv	a2,s6
    3ff2:	85d2                	mv	a1,s4
    3ff4:	854e                	mv	a0,s3
    3ff6:	9a82                	jalr	s5
    3ff8:	01751e63          	bne	a0,s7,4014 <_printf_common+0xd8>
    3ffc:	557d                	li	a0,-1
    3ffe:	50b2                	lw	ra,44(sp)
    4000:	5422                	lw	s0,40(sp)
    4002:	5492                	lw	s1,36(sp)
    4004:	5902                	lw	s2,32(sp)
    4006:	49f2                	lw	s3,28(sp)
    4008:	4a62                	lw	s4,24(sp)
    400a:	4ad2                	lw	s5,20(sp)
    400c:	4b42                	lw	s6,16(sp)
    400e:	4bb2                	lw	s7,12(sp)
    4010:	6145                	addi	sp,sp,48
    4012:	8082                	ret
    4014:	0905                	addi	s2,s2,1
    4016:	bfad                	j	3f90 <_printf_common+0x54>
    4018:	00d40733          	add	a4,s0,a3
    401c:	03000613          	li	a2,48
    4020:	04c701a3          	sb	a2,67(a4)
    4024:	04544703          	lbu	a4,69(s0)
    4028:	00168793          	addi	a5,a3,1
    402c:	97a2                	add	a5,a5,s0
    402e:	0689                	addi	a3,a3,2
    4030:	04e781a3          	sb	a4,67(a5)
    4034:	bf9d                	j	3faa <_printf_common+0x6e>
    4036:	4685                	li	a3,1
    4038:	8622                	mv	a2,s0
    403a:	85d2                	mv	a1,s4
    403c:	854e                	mv	a0,s3
    403e:	9a82                	jalr	s5
    4040:	fb650ee3          	beq	a0,s6,3ffc <_printf_common+0xc0>
    4044:	0905                	addi	s2,s2,1
    4046:	b745                	j	3fe6 <_printf_common+0xaa>

00004048 <_printf_i>:
    4048:	7179                	addi	sp,sp,-48
    404a:	d422                	sw	s0,40(sp)
    404c:	d226                	sw	s1,36(sp)
    404e:	d04a                	sw	s2,32(sp)
    4050:	ce4e                	sw	s3,28(sp)
    4052:	d606                	sw	ra,44(sp)
    4054:	cc52                	sw	s4,24(sp)
    4056:	ca56                	sw	s5,20(sp)
    4058:	c85a                	sw	s6,16(sp)
    405a:	89b6                	mv	s3,a3
    405c:	0185c683          	lbu	a3,24(a1)
    4060:	06900793          	li	a5,105
    4064:	8932                	mv	s2,a2
    4066:	84aa                	mv	s1,a0
    4068:	842e                	mv	s0,a1
    406a:	04358613          	addi	a2,a1,67
    406e:	02f68d63          	beq	a3,a5,40a8 <_printf_i+0x60>
    4072:	06d7e263          	bltu	a5,a3,40d6 <_printf_i+0x8e>
    4076:	05800793          	li	a5,88
    407a:	18f68963          	beq	a3,a5,420c <_printf_i+0x1c4>
    407e:	00d7ed63          	bltu	a5,a3,4098 <_printf_i+0x50>
    4082:	22068263          	beqz	a3,42a6 <_printf_i+0x25e>
    4086:	04300793          	li	a5,67
    408a:	0af68f63          	beq	a3,a5,4148 <_printf_i+0x100>
    408e:	04240a93          	addi	s5,s0,66
    4092:	04d40123          	sb	a3,66(s0)
    4096:	a0d1                	j	415a <_printf_i+0x112>
    4098:	06300793          	li	a5,99
    409c:	0af68663          	beq	a3,a5,4148 <_printf_i+0x100>
    40a0:	06400793          	li	a5,100
    40a4:	fef695e3          	bne	a3,a5,408e <_printf_i+0x46>
    40a8:	401c                	lw	a5,0(s0)
    40aa:	4308                	lw	a0,0(a4)
    40ac:	0807f693          	andi	a3,a5,128
    40b0:	00450593          	addi	a1,a0,4
    40b4:	c6cd                	beqz	a3,415e <_printf_i+0x116>
    40b6:	411c                	lw	a5,0(a0)
    40b8:	c30c                	sw	a1,0(a4)
    40ba:	0007d863          	bgez	a5,40ca <_printf_i+0x82>
    40be:	02d00713          	li	a4,45
    40c2:	40f007b3          	neg	a5,a5
    40c6:	04e401a3          	sb	a4,67(s0)
    40ca:	00001697          	auipc	a3,0x1
    40ce:	65268693          	addi	a3,a3,1618 # 571c <MyUSBQUADescHD+0xa4>
    40d2:	4729                	li	a4,10
    40d4:	a875                	j	4190 <_printf_i+0x148>
    40d6:	07000793          	li	a5,112
    40da:	16f68563          	beq	a3,a5,4244 <_printf_i+0x1fc>
    40de:	02d7e563          	bltu	a5,a3,4108 <_printf_i+0xc0>
    40e2:	06e00793          	li	a5,110
    40e6:	18f68c63          	beq	a3,a5,427e <_printf_i+0x236>
    40ea:	06f00793          	li	a5,111
    40ee:	faf690e3          	bne	a3,a5,408e <_printf_i+0x46>
    40f2:	400c                	lw	a1,0(s0)
    40f4:	431c                	lw	a5,0(a4)
    40f6:	0805f813          	andi	a6,a1,128
    40fa:	00478513          	addi	a0,a5,4
    40fe:	06080863          	beqz	a6,416e <_printf_i+0x126>
    4102:	c308                	sw	a0,0(a4)
    4104:	439c                	lw	a5,0(a5)
    4106:	a895                	j	417a <_printf_i+0x132>
    4108:	07500793          	li	a5,117
    410c:	fef683e3          	beq	a3,a5,40f2 <_printf_i+0xaa>
    4110:	07800793          	li	a5,120
    4114:	12f68c63          	beq	a3,a5,424c <_printf_i+0x204>
    4118:	07300793          	li	a5,115
    411c:	f6f699e3          	bne	a3,a5,408e <_printf_i+0x46>
    4120:	431c                	lw	a5,0(a4)
    4122:	41d0                	lw	a2,4(a1)
    4124:	4581                	li	a1,0
    4126:	00478693          	addi	a3,a5,4
    412a:	c314                	sw	a3,0(a4)
    412c:	0007aa83          	lw	s5,0(a5)
    4130:	8556                	mv	a0,s5
    4132:	0a7000ef          	jal	ra,49d8 <memchr>
    4136:	c501                	beqz	a0,413e <_printf_i+0xf6>
    4138:	41550533          	sub	a0,a0,s5
    413c:	c048                	sw	a0,4(s0)
    413e:	405c                	lw	a5,4(s0)
    4140:	c81c                	sw	a5,16(s0)
    4142:	040401a3          	sb	zero,67(s0)
    4146:	a871                	j	41e2 <_printf_i+0x19a>
    4148:	431c                	lw	a5,0(a4)
    414a:	04240a93          	addi	s5,s0,66
    414e:	00478693          	addi	a3,a5,4
    4152:	439c                	lw	a5,0(a5)
    4154:	c314                	sw	a3,0(a4)
    4156:	04f40123          	sb	a5,66(s0)
    415a:	4785                	li	a5,1
    415c:	b7d5                	j	4140 <_printf_i+0xf8>
    415e:	0407f693          	andi	a3,a5,64
    4162:	411c                	lw	a5,0(a0)
    4164:	c30c                	sw	a1,0(a4)
    4166:	dab1                	beqz	a3,40ba <_printf_i+0x72>
    4168:	07c2                	slli	a5,a5,0x10
    416a:	87c1                	srai	a5,a5,0x10
    416c:	b7b9                	j	40ba <_printf_i+0x72>
    416e:	0405f593          	andi	a1,a1,64
    4172:	c308                	sw	a0,0(a4)
    4174:	d9c1                	beqz	a1,4104 <_printf_i+0xbc>
    4176:	0007d783          	lhu	a5,0(a5)
    417a:	06f00713          	li	a4,111
    417e:	0ee68863          	beq	a3,a4,426e <_printf_i+0x226>
    4182:	00001697          	auipc	a3,0x1
    4186:	59a68693          	addi	a3,a3,1434 # 571c <MyUSBQUADescHD+0xa4>
    418a:	4729                	li	a4,10
    418c:	040401a3          	sb	zero,67(s0)
    4190:	404c                	lw	a1,4(s0)
    4192:	c40c                	sw	a1,8(s0)
    4194:	0005c563          	bltz	a1,419e <_printf_i+0x156>
    4198:	4008                	lw	a0,0(s0)
    419a:	996d                	andi	a0,a0,-5
    419c:	c008                	sw	a0,0(s0)
    419e:	e399                	bnez	a5,41a4 <_printf_i+0x15c>
    41a0:	8ab2                	mv	s5,a2
    41a2:	cd91                	beqz	a1,41be <_printf_i+0x176>
    41a4:	8ab2                	mv	s5,a2
    41a6:	02e7f5b3          	remu	a1,a5,a4
    41aa:	1afd                	addi	s5,s5,-1
    41ac:	95b6                	add	a1,a1,a3
    41ae:	0005c583          	lbu	a1,0(a1)
    41b2:	00ba8023          	sb	a1,0(s5)
    41b6:	02e7d5b3          	divu	a1,a5,a4
    41ba:	0ce7f063          	bgeu	a5,a4,427a <_printf_i+0x232>
    41be:	47a1                	li	a5,8
    41c0:	00f71e63          	bne	a4,a5,41dc <_printf_i+0x194>
    41c4:	401c                	lw	a5,0(s0)
    41c6:	8b85                	andi	a5,a5,1
    41c8:	cb91                	beqz	a5,41dc <_printf_i+0x194>
    41ca:	4058                	lw	a4,4(s0)
    41cc:	481c                	lw	a5,16(s0)
    41ce:	00e7c763          	blt	a5,a4,41dc <_printf_i+0x194>
    41d2:	03000793          	li	a5,48
    41d6:	fefa8fa3          	sb	a5,-1(s5)
    41da:	1afd                	addi	s5,s5,-1
    41dc:	41560633          	sub	a2,a2,s5
    41e0:	c810                	sw	a2,16(s0)
    41e2:	874e                	mv	a4,s3
    41e4:	86ca                	mv	a3,s2
    41e6:	0070                	addi	a2,sp,12
    41e8:	85a2                	mv	a1,s0
    41ea:	8526                	mv	a0,s1
    41ec:	d51ff0ef          	jal	ra,3f3c <_printf_common>
    41f0:	5a7d                	li	s4,-1
    41f2:	0b451e63          	bne	a0,s4,42ae <_printf_i+0x266>
    41f6:	557d                	li	a0,-1
    41f8:	50b2                	lw	ra,44(sp)
    41fa:	5422                	lw	s0,40(sp)
    41fc:	5492                	lw	s1,36(sp)
    41fe:	5902                	lw	s2,32(sp)
    4200:	49f2                	lw	s3,28(sp)
    4202:	4a62                	lw	s4,24(sp)
    4204:	4ad2                	lw	s5,20(sp)
    4206:	4b42                	lw	s6,16(sp)
    4208:	6145                	addi	sp,sp,48
    420a:	8082                	ret
    420c:	04d582a3          	sb	a3,69(a1)
    4210:	00001697          	auipc	a3,0x1
    4214:	50c68693          	addi	a3,a3,1292 # 571c <MyUSBQUADescHD+0xa4>
    4218:	400c                	lw	a1,0(s0)
    421a:	4308                	lw	a0,0(a4)
    421c:	0805f813          	andi	a6,a1,128
    4220:	411c                	lw	a5,0(a0)
    4222:	0511                	addi	a0,a0,4
    4224:	02080d63          	beqz	a6,425e <_printf_i+0x216>
    4228:	c308                	sw	a0,0(a4)
    422a:	0015f713          	andi	a4,a1,1
    422e:	c701                	beqz	a4,4236 <_printf_i+0x1ee>
    4230:	0205e593          	ori	a1,a1,32
    4234:	c00c                	sw	a1,0(s0)
    4236:	4741                	li	a4,16
    4238:	fbb1                	bnez	a5,418c <_printf_i+0x144>
    423a:	400c                	lw	a1,0(s0)
    423c:	fdf5f593          	andi	a1,a1,-33
    4240:	c00c                	sw	a1,0(s0)
    4242:	b7a9                	j	418c <_printf_i+0x144>
    4244:	419c                	lw	a5,0(a1)
    4246:	0207e793          	ori	a5,a5,32
    424a:	c19c                	sw	a5,0(a1)
    424c:	07800793          	li	a5,120
    4250:	04f402a3          	sb	a5,69(s0)
    4254:	00001697          	auipc	a3,0x1
    4258:	4dc68693          	addi	a3,a3,1244 # 5730 <MyUSBQUADescHD+0xb8>
    425c:	bf75                	j	4218 <_printf_i+0x1d0>
    425e:	0405f813          	andi	a6,a1,64
    4262:	c308                	sw	a0,0(a4)
    4264:	fc0803e3          	beqz	a6,422a <_printf_i+0x1e2>
    4268:	07c2                	slli	a5,a5,0x10
    426a:	83c1                	srli	a5,a5,0x10
    426c:	bf7d                	j	422a <_printf_i+0x1e2>
    426e:	00001697          	auipc	a3,0x1
    4272:	4ae68693          	addi	a3,a3,1198 # 571c <MyUSBQUADescHD+0xa4>
    4276:	4721                	li	a4,8
    4278:	bf11                	j	418c <_printf_i+0x144>
    427a:	87ae                	mv	a5,a1
    427c:	b72d                	j	41a6 <_printf_i+0x15e>
    427e:	4194                	lw	a3,0(a1)
    4280:	431c                	lw	a5,0(a4)
    4282:	49cc                	lw	a1,20(a1)
    4284:	0806f813          	andi	a6,a3,128
    4288:	00478513          	addi	a0,a5,4
    428c:	00080663          	beqz	a6,4298 <_printf_i+0x250>
    4290:	c308                	sw	a0,0(a4)
    4292:	439c                	lw	a5,0(a5)
    4294:	c38c                	sw	a1,0(a5)
    4296:	a801                	j	42a6 <_printf_i+0x25e>
    4298:	c308                	sw	a0,0(a4)
    429a:	0406f693          	andi	a3,a3,64
    429e:	439c                	lw	a5,0(a5)
    42a0:	daf5                	beqz	a3,4294 <_printf_i+0x24c>
    42a2:	00b79023          	sh	a1,0(a5)
    42a6:	00042823          	sw	zero,16(s0)
    42aa:	8ab2                	mv	s5,a2
    42ac:	bf1d                	j	41e2 <_printf_i+0x19a>
    42ae:	4814                	lw	a3,16(s0)
    42b0:	8656                	mv	a2,s5
    42b2:	85ca                	mv	a1,s2
    42b4:	8526                	mv	a0,s1
    42b6:	9982                	jalr	s3
    42b8:	f3450fe3          	beq	a0,s4,41f6 <_printf_i+0x1ae>
    42bc:	401c                	lw	a5,0(s0)
    42be:	8b89                	andi	a5,a5,2
    42c0:	e78d                	bnez	a5,42ea <_printf_i+0x2a2>
    42c2:	47b2                	lw	a5,12(sp)
    42c4:	4448                	lw	a0,12(s0)
    42c6:	f2f559e3          	bge	a0,a5,41f8 <_printf_i+0x1b0>
    42ca:	853e                	mv	a0,a5
    42cc:	b735                	j	41f8 <_printf_i+0x1b0>
    42ce:	4685                	li	a3,1
    42d0:	8656                	mv	a2,s5
    42d2:	85ca                	mv	a1,s2
    42d4:	8526                	mv	a0,s1
    42d6:	9982                	jalr	s3
    42d8:	f1650fe3          	beq	a0,s6,41f6 <_printf_i+0x1ae>
    42dc:	0a05                	addi	s4,s4,1
    42de:	445c                	lw	a5,12(s0)
    42e0:	4732                	lw	a4,12(sp)
    42e2:	8f99                	sub	a5,a5,a4
    42e4:	fefa45e3          	blt	s4,a5,42ce <_printf_i+0x286>
    42e8:	bfe9                	j	42c2 <_printf_i+0x27a>
    42ea:	4a01                	li	s4,0
    42ec:	01940a93          	addi	s5,s0,25
    42f0:	5b7d                	li	s6,-1
    42f2:	b7f5                	j	42de <_printf_i+0x296>

000042f4 <iprintf>:
    42f4:	7139                	addi	sp,sp,-64
    42f6:	da3e                	sw	a5,52(sp)
    42f8:	d22e                	sw	a1,36(sp)
    42fa:	d432                	sw	a2,40(sp)
    42fc:	d636                	sw	a3,44(sp)
    42fe:	d83a                	sw	a4,48(sp)
    4300:	dc42                	sw	a6,56(sp)
    4302:	de46                	sw	a7,60(sp)
    4304:	81c18793          	addi	a5,gp,-2020 # 2000011c <_impure_ptr>
    4308:	cc22                	sw	s0,24(sp)
    430a:	4380                	lw	s0,0(a5)
    430c:	ca26                	sw	s1,20(sp)
    430e:	ce06                	sw	ra,28(sp)
    4310:	84aa                	mv	s1,a0
    4312:	c409                	beqz	s0,431c <iprintf+0x28>
    4314:	4c1c                	lw	a5,24(s0)
    4316:	e399                	bnez	a5,431c <iprintf+0x28>
    4318:	8522                	mv	a0,s0
    431a:	2981                	jal	476a <__sinit>
    431c:	440c                	lw	a1,8(s0)
    431e:	1054                	addi	a3,sp,36
    4320:	8626                	mv	a2,s1
    4322:	8522                	mv	a0,s0
    4324:	c636                	sw	a3,12(sp)
    4326:	979ff0ef          	jal	ra,3c9e <_vfiprintf_r>
    432a:	40f2                	lw	ra,28(sp)
    432c:	4462                	lw	s0,24(sp)
    432e:	44d2                	lw	s1,20(sp)
    4330:	6121                	addi	sp,sp,64
    4332:	8082                	ret

00004334 <__swbuf_r>:
    4334:	1101                	addi	sp,sp,-32
    4336:	cc22                	sw	s0,24(sp)
    4338:	ca26                	sw	s1,20(sp)
    433a:	c84a                	sw	s2,16(sp)
    433c:	ce06                	sw	ra,28(sp)
    433e:	c64e                	sw	s3,12(sp)
    4340:	84aa                	mv	s1,a0
    4342:	892e                	mv	s2,a1
    4344:	8432                	mv	s0,a2
    4346:	c501                	beqz	a0,434e <__swbuf_r+0x1a>
    4348:	4d1c                	lw	a5,24(a0)
    434a:	e391                	bnez	a5,434e <__swbuf_r+0x1a>
    434c:	2939                	jal	476a <__sinit>
    434e:	00001797          	auipc	a5,0x1
    4352:	41678793          	addi	a5,a5,1046 # 5764 <__sf_fake_stdin>
    4356:	06f41963          	bne	s0,a5,43c8 <__swbuf_r+0x94>
    435a:	40c0                	lw	s0,4(s1)
    435c:	4c1c                	lw	a5,24(s0)
    435e:	c41c                	sw	a5,8(s0)
    4360:	00c45783          	lhu	a5,12(s0)
    4364:	8ba1                	andi	a5,a5,8
    4366:	c3c9                	beqz	a5,43e8 <__swbuf_r+0xb4>
    4368:	481c                	lw	a5,16(s0)
    436a:	cfbd                	beqz	a5,43e8 <__swbuf_r+0xb4>
    436c:	481c                	lw	a5,16(s0)
    436e:	4008                	lw	a0,0(s0)
    4370:	0ff97993          	andi	s3,s2,255
    4374:	0ff97913          	andi	s2,s2,255
    4378:	8d1d                	sub	a0,a0,a5
    437a:	485c                	lw	a5,20(s0)
    437c:	00f54663          	blt	a0,a5,4388 <__swbuf_r+0x54>
    4380:	85a2                	mv	a1,s0
    4382:	8526                	mv	a0,s1
    4384:	24d9                	jal	464a <_fflush_r>
    4386:	e52d                	bnez	a0,43f0 <__swbuf_r+0xbc>
    4388:	441c                	lw	a5,8(s0)
    438a:	0505                	addi	a0,a0,1
    438c:	17fd                	addi	a5,a5,-1
    438e:	c41c                	sw	a5,8(s0)
    4390:	401c                	lw	a5,0(s0)
    4392:	00178713          	addi	a4,a5,1
    4396:	c018                	sw	a4,0(s0)
    4398:	01378023          	sb	s3,0(a5)
    439c:	485c                	lw	a5,20(s0)
    439e:	00a78963          	beq	a5,a0,43b0 <__swbuf_r+0x7c>
    43a2:	00c45783          	lhu	a5,12(s0)
    43a6:	8b85                	andi	a5,a5,1
    43a8:	cb81                	beqz	a5,43b8 <__swbuf_r+0x84>
    43aa:	47a9                	li	a5,10
    43ac:	00f91663          	bne	s2,a5,43b8 <__swbuf_r+0x84>
    43b0:	85a2                	mv	a1,s0
    43b2:	8526                	mv	a0,s1
    43b4:	2c59                	jal	464a <_fflush_r>
    43b6:	ed0d                	bnez	a0,43f0 <__swbuf_r+0xbc>
    43b8:	40f2                	lw	ra,28(sp)
    43ba:	4462                	lw	s0,24(sp)
    43bc:	854a                	mv	a0,s2
    43be:	44d2                	lw	s1,20(sp)
    43c0:	4942                	lw	s2,16(sp)
    43c2:	49b2                	lw	s3,12(sp)
    43c4:	6105                	addi	sp,sp,32
    43c6:	8082                	ret
    43c8:	00001797          	auipc	a5,0x1
    43cc:	3bc78793          	addi	a5,a5,956 # 5784 <__sf_fake_stdout>
    43d0:	00f41463          	bne	s0,a5,43d8 <__swbuf_r+0xa4>
    43d4:	4480                	lw	s0,8(s1)
    43d6:	b759                	j	435c <__swbuf_r+0x28>
    43d8:	00001797          	auipc	a5,0x1
    43dc:	36c78793          	addi	a5,a5,876 # 5744 <__sf_fake_stderr>
    43e0:	f6f41ee3          	bne	s0,a5,435c <__swbuf_r+0x28>
    43e4:	44c0                	lw	s0,12(s1)
    43e6:	bf9d                	j	435c <__swbuf_r+0x28>
    43e8:	85a2                	mv	a1,s0
    43ea:	8526                	mv	a0,s1
    43ec:	2021                	jal	43f4 <__swsetup_r>
    43ee:	dd3d                	beqz	a0,436c <__swbuf_r+0x38>
    43f0:	597d                	li	s2,-1
    43f2:	b7d9                	j	43b8 <__swbuf_r+0x84>

000043f4 <__swsetup_r>:
    43f4:	1141                	addi	sp,sp,-16
    43f6:	81c18793          	addi	a5,gp,-2020 # 2000011c <_impure_ptr>
    43fa:	c226                	sw	s1,4(sp)
    43fc:	4384                	lw	s1,0(a5)
    43fe:	c422                	sw	s0,8(sp)
    4400:	c04a                	sw	s2,0(sp)
    4402:	c606                	sw	ra,12(sp)
    4404:	892a                	mv	s2,a0
    4406:	842e                	mv	s0,a1
    4408:	c489                	beqz	s1,4412 <__swsetup_r+0x1e>
    440a:	4c9c                	lw	a5,24(s1)
    440c:	e399                	bnez	a5,4412 <__swsetup_r+0x1e>
    440e:	8526                	mv	a0,s1
    4410:	2ea9                	jal	476a <__sinit>
    4412:	00001797          	auipc	a5,0x1
    4416:	35278793          	addi	a5,a5,850 # 5764 <__sf_fake_stdin>
    441a:	02f41c63          	bne	s0,a5,4452 <__swsetup_r+0x5e>
    441e:	40c0                	lw	s0,4(s1)
    4420:	00c41703          	lh	a4,12(s0)
    4424:	01071793          	slli	a5,a4,0x10
    4428:	83c1                	srli	a5,a5,0x10
    442a:	0087f693          	andi	a3,a5,8
    442e:	eeb5                	bnez	a3,44aa <__swsetup_r+0xb6>
    4430:	0107f693          	andi	a3,a5,16
    4434:	ee9d                	bnez	a3,4472 <__swsetup_r+0x7e>
    4436:	47a5                	li	a5,9
    4438:	00f92023          	sw	a5,0(s2)
    443c:	04076713          	ori	a4,a4,64
    4440:	00e41623          	sh	a4,12(s0)
    4444:	557d                	li	a0,-1
    4446:	40b2                	lw	ra,12(sp)
    4448:	4422                	lw	s0,8(sp)
    444a:	4492                	lw	s1,4(sp)
    444c:	4902                	lw	s2,0(sp)
    444e:	0141                	addi	sp,sp,16
    4450:	8082                	ret
    4452:	00001797          	auipc	a5,0x1
    4456:	33278793          	addi	a5,a5,818 # 5784 <__sf_fake_stdout>
    445a:	00f41463          	bne	s0,a5,4462 <__swsetup_r+0x6e>
    445e:	4480                	lw	s0,8(s1)
    4460:	b7c1                	j	4420 <__swsetup_r+0x2c>
    4462:	00001797          	auipc	a5,0x1
    4466:	2e278793          	addi	a5,a5,738 # 5744 <__sf_fake_stderr>
    446a:	faf41be3          	bne	s0,a5,4420 <__swsetup_r+0x2c>
    446e:	44c0                	lw	s0,12(s1)
    4470:	bf45                	j	4420 <__swsetup_r+0x2c>
    4472:	8b91                	andi	a5,a5,4
    4474:	c78d                	beqz	a5,449e <__swsetup_r+0xaa>
    4476:	584c                	lw	a1,52(s0)
    4478:	c989                	beqz	a1,448a <__swsetup_r+0x96>
    447a:	04440793          	addi	a5,s0,68
    447e:	00f58463          	beq	a1,a5,4486 <__swsetup_r+0x92>
    4482:	854a                	mv	a0,s2
    4484:	23bd                	jal	49f2 <_free_r>
    4486:	02042a23          	sw	zero,52(s0)
    448a:	00c45783          	lhu	a5,12(s0)
    448e:	00042223          	sw	zero,4(s0)
    4492:	fdb7f793          	andi	a5,a5,-37
    4496:	00f41623          	sh	a5,12(s0)
    449a:	481c                	lw	a5,16(s0)
    449c:	c01c                	sw	a5,0(s0)
    449e:	00c45783          	lhu	a5,12(s0)
    44a2:	0087e793          	ori	a5,a5,8
    44a6:	00f41623          	sh	a5,12(s0)
    44aa:	481c                	lw	a5,16(s0)
    44ac:	ef81                	bnez	a5,44c4 <__swsetup_r+0xd0>
    44ae:	00c45783          	lhu	a5,12(s0)
    44b2:	20000713          	li	a4,512
    44b6:	2807f793          	andi	a5,a5,640
    44ba:	00e78563          	beq	a5,a4,44c4 <__swsetup_r+0xd0>
    44be:	85a2                	mv	a1,s0
    44c0:	854a                	mv	a0,s2
    44c2:	29a5                	jal	493a <__smakebuf_r>
    44c4:	00c45783          	lhu	a5,12(s0)
    44c8:	0017f713          	andi	a4,a5,1
    44cc:	c705                	beqz	a4,44f4 <__swsetup_r+0x100>
    44ce:	485c                	lw	a5,20(s0)
    44d0:	00042423          	sw	zero,8(s0)
    44d4:	40f007b3          	neg	a5,a5
    44d8:	cc1c                	sw	a5,24(s0)
    44da:	481c                	lw	a5,16(s0)
    44dc:	4501                	li	a0,0
    44de:	f7a5                	bnez	a5,4446 <__swsetup_r+0x52>
    44e0:	00c41783          	lh	a5,12(s0)
    44e4:	0807f713          	andi	a4,a5,128
    44e8:	df39                	beqz	a4,4446 <__swsetup_r+0x52>
    44ea:	0407e793          	ori	a5,a5,64
    44ee:	00f41623          	sh	a5,12(s0)
    44f2:	bf89                	j	4444 <__swsetup_r+0x50>
    44f4:	8b89                	andi	a5,a5,2
    44f6:	4701                	li	a4,0
    44f8:	e391                	bnez	a5,44fc <__swsetup_r+0x108>
    44fa:	4858                	lw	a4,20(s0)
    44fc:	c418                	sw	a4,8(s0)
    44fe:	bff1                	j	44da <__swsetup_r+0xe6>

00004500 <abort>:
    4500:	1141                	addi	sp,sp,-16
    4502:	4519                	li	a0,6
    4504:	c606                	sw	ra,12(sp)
    4506:	2dc5                	jal	4bf6 <raise>
    4508:	4505                	li	a0,1
    450a:	1af000ef          	jal	ra,4eb8 <_exit>

0000450e <__sflush_r>:
    450e:	00c5d783          	lhu	a5,12(a1)
    4512:	1101                	addi	sp,sp,-32
    4514:	cc22                	sw	s0,24(sp)
    4516:	ca26                	sw	s1,20(sp)
    4518:	ce06                	sw	ra,28(sp)
    451a:	c84a                	sw	s2,16(sp)
    451c:	c64e                	sw	s3,12(sp)
    451e:	0087f713          	andi	a4,a5,8
    4522:	84aa                	mv	s1,a0
    4524:	842e                	mv	s0,a1
    4526:	ef71                	bnez	a4,4602 <__sflush_r+0xf4>
    4528:	41d8                	lw	a4,4(a1)
    452a:	00e04d63          	bgtz	a4,4544 <__sflush_r+0x36>
    452e:	41b8                	lw	a4,64(a1)
    4530:	00e04a63          	bgtz	a4,4544 <__sflush_r+0x36>
    4534:	4501                	li	a0,0
    4536:	40f2                	lw	ra,28(sp)
    4538:	4462                	lw	s0,24(sp)
    453a:	44d2                	lw	s1,20(sp)
    453c:	4942                	lw	s2,16(sp)
    453e:	49b2                	lw	s3,12(sp)
    4540:	6105                	addi	sp,sp,32
    4542:	8082                	ret
    4544:	5458                	lw	a4,44(s0)
    4546:	d77d                	beqz	a4,4534 <__sflush_r+0x26>
    4548:	0004a903          	lw	s2,0(s1)
    454c:	01379693          	slli	a3,a5,0x13
    4550:	0004a023          	sw	zero,0(s1)
    4554:	0606dd63          	bgez	a3,45ce <__sflush_r+0xc0>
    4558:	4870                	lw	a2,84(s0)
    455a:	00c45783          	lhu	a5,12(s0)
    455e:	8b91                	andi	a5,a5,4
    4560:	c799                	beqz	a5,456e <__sflush_r+0x60>
    4562:	405c                	lw	a5,4(s0)
    4564:	8e1d                	sub	a2,a2,a5
    4566:	585c                	lw	a5,52(s0)
    4568:	c399                	beqz	a5,456e <__sflush_r+0x60>
    456a:	403c                	lw	a5,64(s0)
    456c:	8e1d                	sub	a2,a2,a5
    456e:	545c                	lw	a5,44(s0)
    4570:	500c                	lw	a1,32(s0)
    4572:	4681                	li	a3,0
    4574:	8526                	mv	a0,s1
    4576:	9782                	jalr	a5
    4578:	57fd                	li	a5,-1
    457a:	00c45703          	lhu	a4,12(s0)
    457e:	00f51d63          	bne	a0,a5,4598 <__sflush_r+0x8a>
    4582:	4094                	lw	a3,0(s1)
    4584:	47f5                	li	a5,29
    4586:	06d7e863          	bltu	a5,a3,45f6 <__sflush_r+0xe8>
    458a:	204007b7          	lui	a5,0x20400
    458e:	0785                	addi	a5,a5,1
    4590:	00d7d7b3          	srl	a5,a5,a3
    4594:	8b85                	andi	a5,a5,1
    4596:	c3a5                	beqz	a5,45f6 <__sflush_r+0xe8>
    4598:	481c                	lw	a5,16(s0)
    459a:	00042223          	sw	zero,4(s0)
    459e:	c01c                	sw	a5,0(s0)
    45a0:	01371793          	slli	a5,a4,0x13
    45a4:	0007d863          	bgez	a5,45b4 <__sflush_r+0xa6>
    45a8:	57fd                	li	a5,-1
    45aa:	00f51463          	bne	a0,a5,45b2 <__sflush_r+0xa4>
    45ae:	409c                	lw	a5,0(s1)
    45b0:	e391                	bnez	a5,45b4 <__sflush_r+0xa6>
    45b2:	c868                	sw	a0,84(s0)
    45b4:	584c                	lw	a1,52(s0)
    45b6:	0124a023          	sw	s2,0(s1)
    45ba:	ddad                	beqz	a1,4534 <__sflush_r+0x26>
    45bc:	04440793          	addi	a5,s0,68
    45c0:	00f58463          	beq	a1,a5,45c8 <__sflush_r+0xba>
    45c4:	8526                	mv	a0,s1
    45c6:	2135                	jal	49f2 <_free_r>
    45c8:	02042a23          	sw	zero,52(s0)
    45cc:	b7a5                	j	4534 <__sflush_r+0x26>
    45ce:	500c                	lw	a1,32(s0)
    45d0:	4601                	li	a2,0
    45d2:	4685                	li	a3,1
    45d4:	8526                	mv	a0,s1
    45d6:	9702                	jalr	a4
    45d8:	57fd                	li	a5,-1
    45da:	862a                	mv	a2,a0
    45dc:	f6f51fe3          	bne	a0,a5,455a <__sflush_r+0x4c>
    45e0:	409c                	lw	a5,0(s1)
    45e2:	dfa5                	beqz	a5,455a <__sflush_r+0x4c>
    45e4:	4775                	li	a4,29
    45e6:	00e78563          	beq	a5,a4,45f0 <__sflush_r+0xe2>
    45ea:	4759                	li	a4,22
    45ec:	04e79463          	bne	a5,a4,4634 <__sflush_r+0x126>
    45f0:	0124a023          	sw	s2,0(s1)
    45f4:	b781                	j	4534 <__sflush_r+0x26>
    45f6:	04076713          	ori	a4,a4,64
    45fa:	00e41623          	sh	a4,12(s0)
    45fe:	557d                	li	a0,-1
    4600:	bf1d                	j	4536 <__sflush_r+0x28>
    4602:	0105a983          	lw	s3,16(a1)
    4606:	f20987e3          	beqz	s3,4534 <__sflush_r+0x26>
    460a:	0005a903          	lw	s2,0(a1)
    460e:	8b8d                	andi	a5,a5,3
    4610:	0135a023          	sw	s3,0(a1)
    4614:	41390933          	sub	s2,s2,s3
    4618:	4701                	li	a4,0
    461a:	e391                	bnez	a5,461e <__sflush_r+0x110>
    461c:	49d8                	lw	a4,20(a1)
    461e:	c418                	sw	a4,8(s0)
    4620:	f1205ae3          	blez	s2,4534 <__sflush_r+0x26>
    4624:	541c                	lw	a5,40(s0)
    4626:	500c                	lw	a1,32(s0)
    4628:	86ca                	mv	a3,s2
    462a:	864e                	mv	a2,s3
    462c:	8526                	mv	a0,s1
    462e:	9782                	jalr	a5
    4630:	00a04963          	bgtz	a0,4642 <__sflush_r+0x134>
    4634:	00c45783          	lhu	a5,12(s0)
    4638:	0407e793          	ori	a5,a5,64
    463c:	00f41623          	sh	a5,12(s0)
    4640:	bf7d                	j	45fe <__sflush_r+0xf0>
    4642:	99aa                	add	s3,s3,a0
    4644:	40a90933          	sub	s2,s2,a0
    4648:	bfe1                	j	4620 <__sflush_r+0x112>

0000464a <_fflush_r>:
    464a:	499c                	lw	a5,16(a1)
    464c:	c3a5                	beqz	a5,46ac <_fflush_r+0x62>
    464e:	1101                	addi	sp,sp,-32
    4650:	cc22                	sw	s0,24(sp)
    4652:	ce06                	sw	ra,28(sp)
    4654:	842a                	mv	s0,a0
    4656:	c511                	beqz	a0,4662 <_fflush_r+0x18>
    4658:	4d1c                	lw	a5,24(a0)
    465a:	e781                	bnez	a5,4662 <_fflush_r+0x18>
    465c:	c62e                	sw	a1,12(sp)
    465e:	2231                	jal	476a <__sinit>
    4660:	45b2                	lw	a1,12(sp)
    4662:	00001797          	auipc	a5,0x1
    4666:	10278793          	addi	a5,a5,258 # 5764 <__sf_fake_stdin>
    466a:	00f59c63          	bne	a1,a5,4682 <_fflush_r+0x38>
    466e:	404c                	lw	a1,4(s0)
    4670:	00c59783          	lh	a5,12(a1)
    4674:	c79d                	beqz	a5,46a2 <_fflush_r+0x58>
    4676:	8522                	mv	a0,s0
    4678:	4462                	lw	s0,24(sp)
    467a:	40f2                	lw	ra,28(sp)
    467c:	6105                	addi	sp,sp,32
    467e:	e91ff06f          	j	450e <__sflush_r>
    4682:	00001797          	auipc	a5,0x1
    4686:	10278793          	addi	a5,a5,258 # 5784 <__sf_fake_stdout>
    468a:	00f59463          	bne	a1,a5,4692 <_fflush_r+0x48>
    468e:	440c                	lw	a1,8(s0)
    4690:	b7c5                	j	4670 <_fflush_r+0x26>
    4692:	00001797          	auipc	a5,0x1
    4696:	0b278793          	addi	a5,a5,178 # 5744 <__sf_fake_stderr>
    469a:	fcf59be3          	bne	a1,a5,4670 <_fflush_r+0x26>
    469e:	444c                	lw	a1,12(s0)
    46a0:	bfc1                	j	4670 <_fflush_r+0x26>
    46a2:	40f2                	lw	ra,28(sp)
    46a4:	4462                	lw	s0,24(sp)
    46a6:	4501                	li	a0,0
    46a8:	6105                	addi	sp,sp,32
    46aa:	8082                	ret
    46ac:	4501                	li	a0,0
    46ae:	8082                	ret

000046b0 <std>:
    46b0:	1141                	addi	sp,sp,-16
    46b2:	c422                	sw	s0,8(sp)
    46b4:	c606                	sw	ra,12(sp)
    46b6:	842a                	mv	s0,a0
    46b8:	00b51623          	sh	a1,12(a0)
    46bc:	00c51723          	sh	a2,14(a0)
    46c0:	00052023          	sw	zero,0(a0)
    46c4:	00052223          	sw	zero,4(a0)
    46c8:	00052423          	sw	zero,8(a0)
    46cc:	06052223          	sw	zero,100(a0)
    46d0:	00052823          	sw	zero,16(a0)
    46d4:	00052a23          	sw	zero,20(a0)
    46d8:	00052c23          	sw	zero,24(a0)
    46dc:	4621                	li	a2,8
    46de:	4581                	li	a1,0
    46e0:	05c50513          	addi	a0,a0,92
    46e4:	b1dfb0ef          	jal	ra,200 <memset>
    46e8:	00000797          	auipc	a5,0x0
    46ec:	54e78793          	addi	a5,a5,1358 # 4c36 <__sread>
    46f0:	d05c                	sw	a5,36(s0)
    46f2:	00000797          	auipc	a5,0x0
    46f6:	57478793          	addi	a5,a5,1396 # 4c66 <__swrite>
    46fa:	d41c                	sw	a5,40(s0)
    46fc:	00000797          	auipc	a5,0x0
    4700:	5b878793          	addi	a5,a5,1464 # 4cb4 <__sseek>
    4704:	d45c                	sw	a5,44(s0)
    4706:	00000797          	auipc	a5,0x0
    470a:	5e478793          	addi	a5,a5,1508 # 4cea <__sclose>
    470e:	d000                	sw	s0,32(s0)
    4710:	d81c                	sw	a5,48(s0)
    4712:	40b2                	lw	ra,12(sp)
    4714:	4422                	lw	s0,8(sp)
    4716:	0141                	addi	sp,sp,16
    4718:	8082                	ret

0000471a <_cleanup_r>:
    471a:	00000597          	auipc	a1,0x0
    471e:	f3058593          	addi	a1,a1,-208 # 464a <_fflush_r>
    4722:	aa91                	j	4876 <_fwalk_reent>

00004724 <__sfmoreglue>:
    4724:	1141                	addi	sp,sp,-16
    4726:	c226                	sw	s1,4(sp)
    4728:	06800613          	li	a2,104
    472c:	fff58493          	addi	s1,a1,-1
    4730:	02c484b3          	mul	s1,s1,a2
    4734:	c04a                	sw	s2,0(sp)
    4736:	892e                	mv	s2,a1
    4738:	c422                	sw	s0,8(sp)
    473a:	c606                	sw	ra,12(sp)
    473c:	07448593          	addi	a1,s1,116
    4740:	2e99                	jal	4a96 <_malloc_r>
    4742:	842a                	mv	s0,a0
    4744:	cd01                	beqz	a0,475c <__sfmoreglue+0x38>
    4746:	00052023          	sw	zero,0(a0)
    474a:	01252223          	sw	s2,4(a0)
    474e:	0531                	addi	a0,a0,12
    4750:	c408                	sw	a0,8(s0)
    4752:	06848613          	addi	a2,s1,104
    4756:	4581                	li	a1,0
    4758:	aa9fb0ef          	jal	ra,200 <memset>
    475c:	8522                	mv	a0,s0
    475e:	40b2                	lw	ra,12(sp)
    4760:	4422                	lw	s0,8(sp)
    4762:	4492                	lw	s1,4(sp)
    4764:	4902                	lw	s2,0(sp)
    4766:	0141                	addi	sp,sp,16
    4768:	8082                	ret

0000476a <__sinit>:
    476a:	4d1c                	lw	a5,24(a0)
    476c:	e7a5                	bnez	a5,47d4 <__sinit+0x6a>
    476e:	1141                	addi	sp,sp,-16
    4770:	c606                	sw	ra,12(sp)
    4772:	c422                	sw	s0,8(sp)
    4774:	00000797          	auipc	a5,0x0
    4778:	fa678793          	addi	a5,a5,-90 # 471a <_cleanup_r>
    477c:	d51c                	sw	a5,40(a0)
    477e:	82c18793          	addi	a5,gp,-2004 # 2000012c <_global_impure_ptr>
    4782:	439c                	lw	a5,0(a5)
    4784:	04052423          	sw	zero,72(a0)
    4788:	04052623          	sw	zero,76(a0)
    478c:	04052823          	sw	zero,80(a0)
    4790:	00f51463          	bne	a0,a5,4798 <__sinit+0x2e>
    4794:	4785                	li	a5,1
    4796:	cd1c                	sw	a5,24(a0)
    4798:	842a                	mv	s0,a0
    479a:	2835                	jal	47d6 <__sfp>
    479c:	c048                	sw	a0,4(s0)
    479e:	8522                	mv	a0,s0
    47a0:	281d                	jal	47d6 <__sfp>
    47a2:	c408                	sw	a0,8(s0)
    47a4:	8522                	mv	a0,s0
    47a6:	2805                	jal	47d6 <__sfp>
    47a8:	c448                	sw	a0,12(s0)
    47aa:	4048                	lw	a0,4(s0)
    47ac:	4601                	li	a2,0
    47ae:	4591                	li	a1,4
    47b0:	f01ff0ef          	jal	ra,46b0 <std>
    47b4:	4408                	lw	a0,8(s0)
    47b6:	4605                	li	a2,1
    47b8:	45a5                	li	a1,9
    47ba:	ef7ff0ef          	jal	ra,46b0 <std>
    47be:	4448                	lw	a0,12(s0)
    47c0:	4609                	li	a2,2
    47c2:	45c9                	li	a1,18
    47c4:	eedff0ef          	jal	ra,46b0 <std>
    47c8:	4785                	li	a5,1
    47ca:	cc1c                	sw	a5,24(s0)
    47cc:	40b2                	lw	ra,12(sp)
    47ce:	4422                	lw	s0,8(sp)
    47d0:	0141                	addi	sp,sp,16
    47d2:	8082                	ret
    47d4:	8082                	ret

000047d6 <__sfp>:
    47d6:	1141                	addi	sp,sp,-16
    47d8:	82c18793          	addi	a5,gp,-2004 # 2000012c <_global_impure_ptr>
    47dc:	c226                	sw	s1,4(sp)
    47de:	4384                	lw	s1,0(a5)
    47e0:	c04a                	sw	s2,0(sp)
    47e2:	c606                	sw	ra,12(sp)
    47e4:	4c9c                	lw	a5,24(s1)
    47e6:	c422                	sw	s0,8(sp)
    47e8:	892a                	mv	s2,a0
    47ea:	e781                	bnez	a5,47f2 <__sfp+0x1c>
    47ec:	8526                	mv	a0,s1
    47ee:	f7dff0ef          	jal	ra,476a <__sinit>
    47f2:	04848493          	addi	s1,s1,72
    47f6:	4480                	lw	s0,8(s1)
    47f8:	40dc                	lw	a5,4(s1)
    47fa:	17fd                	addi	a5,a5,-1
    47fc:	0007d663          	bgez	a5,4808 <__sfp+0x32>
    4800:	409c                	lw	a5,0(s1)
    4802:	cfb9                	beqz	a5,4860 <__sfp+0x8a>
    4804:	4084                	lw	s1,0(s1)
    4806:	bfc5                	j	47f6 <__sfp+0x20>
    4808:	00c41703          	lh	a4,12(s0)
    480c:	e739                	bnez	a4,485a <__sfp+0x84>
    480e:	77c1                	lui	a5,0xffff0
    4810:	0785                	addi	a5,a5,1
    4812:	06042223          	sw	zero,100(s0)
    4816:	00042023          	sw	zero,0(s0)
    481a:	00042223          	sw	zero,4(s0)
    481e:	00042423          	sw	zero,8(s0)
    4822:	c45c                	sw	a5,12(s0)
    4824:	00042823          	sw	zero,16(s0)
    4828:	00042a23          	sw	zero,20(s0)
    482c:	00042c23          	sw	zero,24(s0)
    4830:	4621                	li	a2,8
    4832:	4581                	li	a1,0
    4834:	05c40513          	addi	a0,s0,92
    4838:	9c9fb0ef          	jal	ra,200 <memset>
    483c:	02042a23          	sw	zero,52(s0)
    4840:	02042c23          	sw	zero,56(s0)
    4844:	04042423          	sw	zero,72(s0)
    4848:	04042623          	sw	zero,76(s0)
    484c:	8522                	mv	a0,s0
    484e:	40b2                	lw	ra,12(sp)
    4850:	4422                	lw	s0,8(sp)
    4852:	4492                	lw	s1,4(sp)
    4854:	4902                	lw	s2,0(sp)
    4856:	0141                	addi	sp,sp,16
    4858:	8082                	ret
    485a:	06840413          	addi	s0,s0,104
    485e:	bf71                	j	47fa <__sfp+0x24>
    4860:	4591                	li	a1,4
    4862:	854a                	mv	a0,s2
    4864:	ec1ff0ef          	jal	ra,4724 <__sfmoreglue>
    4868:	c088                	sw	a0,0(s1)
    486a:	fd49                	bnez	a0,4804 <__sfp+0x2e>
    486c:	47b1                	li	a5,12
    486e:	00f92023          	sw	a5,0(s2)
    4872:	4401                	li	s0,0
    4874:	bfe1                	j	484c <__sfp+0x76>

00004876 <_fwalk_reent>:
    4876:	7179                	addi	sp,sp,-48
    4878:	d422                	sw	s0,40(sp)
    487a:	d04a                	sw	s2,32(sp)
    487c:	cc52                	sw	s4,24(sp)
    487e:	ca56                	sw	s5,20(sp)
    4880:	c85a                	sw	s6,16(sp)
    4882:	c65e                	sw	s7,12(sp)
    4884:	d606                	sw	ra,44(sp)
    4886:	d226                	sw	s1,36(sp)
    4888:	ce4e                	sw	s3,28(sp)
    488a:	8a2a                	mv	s4,a0
    488c:	8aae                	mv	s5,a1
    488e:	04850413          	addi	s0,a0,72
    4892:	4901                	li	s2,0
    4894:	4b05                	li	s6,1
    4896:	5bfd                	li	s7,-1
    4898:	ec09                	bnez	s0,48b2 <_fwalk_reent+0x3c>
    489a:	50b2                	lw	ra,44(sp)
    489c:	5422                	lw	s0,40(sp)
    489e:	854a                	mv	a0,s2
    48a0:	5492                	lw	s1,36(sp)
    48a2:	5902                	lw	s2,32(sp)
    48a4:	49f2                	lw	s3,28(sp)
    48a6:	4a62                	lw	s4,24(sp)
    48a8:	4ad2                	lw	s5,20(sp)
    48aa:	4b42                	lw	s6,16(sp)
    48ac:	4bb2                	lw	s7,12(sp)
    48ae:	6145                	addi	sp,sp,48
    48b0:	8082                	ret
    48b2:	4404                	lw	s1,8(s0)
    48b4:	00442983          	lw	s3,4(s0)
    48b8:	19fd                	addi	s3,s3,-1
    48ba:	0009d463          	bgez	s3,48c2 <_fwalk_reent+0x4c>
    48be:	4000                	lw	s0,0(s0)
    48c0:	bfe1                	j	4898 <_fwalk_reent+0x22>
    48c2:	00c4d783          	lhu	a5,12(s1)
    48c6:	00fb7b63          	bgeu	s6,a5,48dc <_fwalk_reent+0x66>
    48ca:	00e49783          	lh	a5,14(s1)
    48ce:	01778763          	beq	a5,s7,48dc <_fwalk_reent+0x66>
    48d2:	85a6                	mv	a1,s1
    48d4:	8552                	mv	a0,s4
    48d6:	9a82                	jalr	s5
    48d8:	00a96933          	or	s2,s2,a0
    48dc:	06848493          	addi	s1,s1,104
    48e0:	bfe1                	j	48b8 <_fwalk_reent+0x42>

000048e2 <__swhatbuf_r>:
    48e2:	7119                	addi	sp,sp,-128
    48e4:	daa6                	sw	s1,116(sp)
    48e6:	84ae                	mv	s1,a1
    48e8:	00e59583          	lh	a1,14(a1)
    48ec:	dca2                	sw	s0,120(sp)
    48ee:	de86                	sw	ra,124(sp)
    48f0:	8432                	mv	s0,a2
    48f2:	0005dc63          	bgez	a1,490a <__swhatbuf_r+0x28>
    48f6:	00c4d783          	lhu	a5,12(s1)
    48fa:	0006a023          	sw	zero,0(a3)
    48fe:	0807f793          	andi	a5,a5,128
    4902:	e39d                	bnez	a5,4928 <__swhatbuf_r+0x46>
    4904:	40000793          	li	a5,1024
    4908:	a015                	j	492c <__swhatbuf_r+0x4a>
    490a:	0830                	addi	a2,sp,24
    490c:	c636                	sw	a3,12(sp)
    490e:	21a1                	jal	4d56 <_fstat_r>
    4910:	46b2                	lw	a3,12(sp)
    4912:	fe0542e3          	bltz	a0,48f6 <__swhatbuf_r+0x14>
    4916:	4772                	lw	a4,28(sp)
    4918:	67bd                	lui	a5,0xf
    491a:	8ff9                	and	a5,a5,a4
    491c:	7779                	lui	a4,0xffffe
    491e:	97ba                	add	a5,a5,a4
    4920:	0017b793          	seqz	a5,a5
    4924:	c29c                	sw	a5,0(a3)
    4926:	bff9                	j	4904 <__swhatbuf_r+0x22>
    4928:	04000793          	li	a5,64
    492c:	c01c                	sw	a5,0(s0)
    492e:	50f6                	lw	ra,124(sp)
    4930:	5466                	lw	s0,120(sp)
    4932:	54d6                	lw	s1,116(sp)
    4934:	4501                	li	a0,0
    4936:	6109                	addi	sp,sp,128
    4938:	8082                	ret

0000493a <__smakebuf_r>:
    493a:	00c5d783          	lhu	a5,12(a1)
    493e:	1101                	addi	sp,sp,-32
    4940:	cc22                	sw	s0,24(sp)
    4942:	ce06                	sw	ra,28(sp)
    4944:	ca26                	sw	s1,20(sp)
    4946:	c84a                	sw	s2,16(sp)
    4948:	8b89                	andi	a5,a5,2
    494a:	842e                	mv	s0,a1
    494c:	cf89                	beqz	a5,4966 <__smakebuf_r+0x2c>
    494e:	04740793          	addi	a5,s0,71
    4952:	c01c                	sw	a5,0(s0)
    4954:	c81c                	sw	a5,16(s0)
    4956:	4785                	li	a5,1
    4958:	c85c                	sw	a5,20(s0)
    495a:	40f2                	lw	ra,28(sp)
    495c:	4462                	lw	s0,24(sp)
    495e:	44d2                	lw	s1,20(sp)
    4960:	4942                	lw	s2,16(sp)
    4962:	6105                	addi	sp,sp,32
    4964:	8082                	ret
    4966:	0074                	addi	a3,sp,12
    4968:	0030                	addi	a2,sp,8
    496a:	84aa                	mv	s1,a0
    496c:	f77ff0ef          	jal	ra,48e2 <__swhatbuf_r>
    4970:	45a2                	lw	a1,8(sp)
    4972:	892a                	mv	s2,a0
    4974:	8526                	mv	a0,s1
    4976:	2205                	jal	4a96 <_malloc_r>
    4978:	ed01                	bnez	a0,4990 <__smakebuf_r+0x56>
    497a:	00c41783          	lh	a5,12(s0)
    497e:	2007f713          	andi	a4,a5,512
    4982:	ff61                	bnez	a4,495a <__smakebuf_r+0x20>
    4984:	9bf1                	andi	a5,a5,-4
    4986:	0027e793          	ori	a5,a5,2
    498a:	00f41623          	sh	a5,12(s0)
    498e:	b7c1                	j	494e <__smakebuf_r+0x14>
    4990:	00000797          	auipc	a5,0x0
    4994:	d8a78793          	addi	a5,a5,-630 # 471a <_cleanup_r>
    4998:	d49c                	sw	a5,40(s1)
    499a:	00c45783          	lhu	a5,12(s0)
    499e:	c008                	sw	a0,0(s0)
    49a0:	c808                	sw	a0,16(s0)
    49a2:	0807e793          	ori	a5,a5,128
    49a6:	00f41623          	sh	a5,12(s0)
    49aa:	47a2                	lw	a5,8(sp)
    49ac:	c85c                	sw	a5,20(s0)
    49ae:	47b2                	lw	a5,12(sp)
    49b0:	cf89                	beqz	a5,49ca <__smakebuf_r+0x90>
    49b2:	00e41583          	lh	a1,14(s0)
    49b6:	8526                	mv	a0,s1
    49b8:	2ec1                	jal	4d88 <_isatty_r>
    49ba:	c901                	beqz	a0,49ca <__smakebuf_r+0x90>
    49bc:	00c45783          	lhu	a5,12(s0)
    49c0:	9bf1                	andi	a5,a5,-4
    49c2:	0017e793          	ori	a5,a5,1
    49c6:	00f41623          	sh	a5,12(s0)
    49ca:	00c45783          	lhu	a5,12(s0)
    49ce:	00f96933          	or	s2,s2,a5
    49d2:	01241623          	sh	s2,12(s0)
    49d6:	b751                	j	495a <__smakebuf_r+0x20>

000049d8 <memchr>:
    49d8:	0ff5f593          	andi	a1,a1,255
    49dc:	962a                	add	a2,a2,a0
    49de:	00c51463          	bne	a0,a2,49e6 <memchr+0xe>
    49e2:	4501                	li	a0,0
    49e4:	8082                	ret
    49e6:	00054783          	lbu	a5,0(a0)
    49ea:	feb78de3          	beq	a5,a1,49e4 <memchr+0xc>
    49ee:	0505                	addi	a0,a0,1
    49f0:	b7fd                	j	49de <memchr+0x6>

000049f2 <_free_r>:
    49f2:	c1cd                	beqz	a1,4a94 <_free_r+0xa2>
    49f4:	ffc5a783          	lw	a5,-4(a1)
    49f8:	1141                	addi	sp,sp,-16
    49fa:	c422                	sw	s0,8(sp)
    49fc:	c606                	sw	ra,12(sp)
    49fe:	c226                	sw	s1,4(sp)
    4a00:	ffc58413          	addi	s0,a1,-4
    4a04:	0007d363          	bgez	a5,4a0a <_free_r+0x18>
    4a08:	943e                	add	s0,s0,a5
    4a0a:	84aa                	mv	s1,a0
    4a0c:	26c5                	jal	4dec <__malloc_lock>
    4a0e:	84818793          	addi	a5,gp,-1976 # 20000148 <__malloc_free_list>
    4a12:	439c                	lw	a5,0(a5)
    4a14:	eb99                	bnez	a5,4a2a <_free_r+0x38>
    4a16:	00042223          	sw	zero,4(s0)
    4a1a:	8481a423          	sw	s0,-1976(gp) # 20000148 <__malloc_free_list>
    4a1e:	4422                	lw	s0,8(sp)
    4a20:	40b2                	lw	ra,12(sp)
    4a22:	8526                	mv	a0,s1
    4a24:	4492                	lw	s1,4(sp)
    4a26:	0141                	addi	sp,sp,16
    4a28:	a6d9                	j	4dee <__malloc_unlock>
    4a2a:	00f47e63          	bgeu	s0,a5,4a46 <_free_r+0x54>
    4a2e:	4014                	lw	a3,0(s0)
    4a30:	00d40733          	add	a4,s0,a3
    4a34:	00e79663          	bne	a5,a4,4a40 <_free_r+0x4e>
    4a38:	4398                	lw	a4,0(a5)
    4a3a:	43dc                	lw	a5,4(a5)
    4a3c:	9736                	add	a4,a4,a3
    4a3e:	c018                	sw	a4,0(s0)
    4a40:	c05c                	sw	a5,4(s0)
    4a42:	bfe1                	j	4a1a <_free_r+0x28>
    4a44:	87ba                	mv	a5,a4
    4a46:	43d8                	lw	a4,4(a5)
    4a48:	c319                	beqz	a4,4a4e <_free_r+0x5c>
    4a4a:	fee47de3          	bgeu	s0,a4,4a44 <_free_r+0x52>
    4a4e:	4394                	lw	a3,0(a5)
    4a50:	00d78633          	add	a2,a5,a3
    4a54:	00861f63          	bne	a2,s0,4a72 <_free_r+0x80>
    4a58:	4010                	lw	a2,0(s0)
    4a5a:	96b2                	add	a3,a3,a2
    4a5c:	c394                	sw	a3,0(a5)
    4a5e:	00d78633          	add	a2,a5,a3
    4a62:	fac71ee3          	bne	a4,a2,4a1e <_free_r+0x2c>
    4a66:	4310                	lw	a2,0(a4)
    4a68:	4358                	lw	a4,4(a4)
    4a6a:	96b2                	add	a3,a3,a2
    4a6c:	c394                	sw	a3,0(a5)
    4a6e:	c3d8                	sw	a4,4(a5)
    4a70:	b77d                	j	4a1e <_free_r+0x2c>
    4a72:	00c47563          	bgeu	s0,a2,4a7c <_free_r+0x8a>
    4a76:	47b1                	li	a5,12
    4a78:	c09c                	sw	a5,0(s1)
    4a7a:	b755                	j	4a1e <_free_r+0x2c>
    4a7c:	4010                	lw	a2,0(s0)
    4a7e:	00c406b3          	add	a3,s0,a2
    4a82:	00d71663          	bne	a4,a3,4a8e <_free_r+0x9c>
    4a86:	4314                	lw	a3,0(a4)
    4a88:	4358                	lw	a4,4(a4)
    4a8a:	96b2                	add	a3,a3,a2
    4a8c:	c014                	sw	a3,0(s0)
    4a8e:	c058                	sw	a4,4(s0)
    4a90:	c3c0                	sw	s0,4(a5)
    4a92:	b771                	j	4a1e <_free_r+0x2c>
    4a94:	8082                	ret

00004a96 <_malloc_r>:
    4a96:	1101                	addi	sp,sp,-32
    4a98:	ca26                	sw	s1,20(sp)
    4a9a:	00358493          	addi	s1,a1,3
    4a9e:	98f1                	andi	s1,s1,-4
    4aa0:	ce06                	sw	ra,28(sp)
    4aa2:	cc22                	sw	s0,24(sp)
    4aa4:	c84a                	sw	s2,16(sp)
    4aa6:	c64e                	sw	s3,12(sp)
    4aa8:	04a1                	addi	s1,s1,8
    4aaa:	47b1                	li	a5,12
    4aac:	04f4f163          	bgeu	s1,a5,4aee <_malloc_r+0x58>
    4ab0:	44b1                	li	s1,12
    4ab2:	04b4e063          	bltu	s1,a1,4af2 <_malloc_r+0x5c>
    4ab6:	892a                	mv	s2,a0
    4ab8:	2e15                	jal	4dec <__malloc_lock>
    4aba:	84818793          	addi	a5,gp,-1976 # 20000148 <__malloc_free_list>
    4abe:	4398                	lw	a4,0(a5)
    4ac0:	843a                	mv	s0,a4
    4ac2:	e031                	bnez	s0,4b06 <_malloc_r+0x70>
    4ac4:	84c18793          	addi	a5,gp,-1972 # 2000014c <__malloc_sbrk_start>
    4ac8:	439c                	lw	a5,0(a5)
    4aca:	e791                	bnez	a5,4ad6 <_malloc_r+0x40>
    4acc:	4581                	li	a1,0
    4ace:	854a                	mv	a0,s2
    4ad0:	2851                	jal	4b64 <_sbrk_r>
    4ad2:	84a1a623          	sw	a0,-1972(gp) # 2000014c <__malloc_sbrk_start>
    4ad6:	85a6                	mv	a1,s1
    4ad8:	854a                	mv	a0,s2
    4ada:	2069                	jal	4b64 <_sbrk_r>
    4adc:	59fd                	li	s3,-1
    4ade:	07351763          	bne	a0,s3,4b4c <_malloc_r+0xb6>
    4ae2:	47b1                	li	a5,12
    4ae4:	00f92023          	sw	a5,0(s2)
    4ae8:	854a                	mv	a0,s2
    4aea:	2611                	jal	4dee <__malloc_unlock>
    4aec:	a029                	j	4af6 <_malloc_r+0x60>
    4aee:	fc04d2e3          	bgez	s1,4ab2 <_malloc_r+0x1c>
    4af2:	47b1                	li	a5,12
    4af4:	c11c                	sw	a5,0(a0)
    4af6:	4501                	li	a0,0
    4af8:	40f2                	lw	ra,28(sp)
    4afa:	4462                	lw	s0,24(sp)
    4afc:	44d2                	lw	s1,20(sp)
    4afe:	4942                	lw	s2,16(sp)
    4b00:	49b2                	lw	s3,12(sp)
    4b02:	6105                	addi	sp,sp,32
    4b04:	8082                	ret
    4b06:	401c                	lw	a5,0(s0)
    4b08:	8f85                	sub	a5,a5,s1
    4b0a:	0207ce63          	bltz	a5,4b46 <_malloc_r+0xb0>
    4b0e:	46ad                	li	a3,11
    4b10:	00f6f663          	bgeu	a3,a5,4b1c <_malloc_r+0x86>
    4b14:	c01c                	sw	a5,0(s0)
    4b16:	943e                	add	s0,s0,a5
    4b18:	c004                	sw	s1,0(s0)
    4b1a:	a031                	j	4b26 <_malloc_r+0x90>
    4b1c:	405c                	lw	a5,4(s0)
    4b1e:	02871263          	bne	a4,s0,4b42 <_malloc_r+0xac>
    4b22:	84f1a423          	sw	a5,-1976(gp) # 20000148 <__malloc_free_list>
    4b26:	854a                	mv	a0,s2
    4b28:	24d9                	jal	4dee <__malloc_unlock>
    4b2a:	00b40513          	addi	a0,s0,11
    4b2e:	00440793          	addi	a5,s0,4
    4b32:	9961                	andi	a0,a0,-8
    4b34:	40f50733          	sub	a4,a0,a5
    4b38:	d361                	beqz	a4,4af8 <_malloc_r+0x62>
    4b3a:	943a                	add	s0,s0,a4
    4b3c:	8f89                	sub	a5,a5,a0
    4b3e:	c01c                	sw	a5,0(s0)
    4b40:	bf65                	j	4af8 <_malloc_r+0x62>
    4b42:	c35c                	sw	a5,4(a4)
    4b44:	b7cd                	j	4b26 <_malloc_r+0x90>
    4b46:	8722                	mv	a4,s0
    4b48:	4040                	lw	s0,4(s0)
    4b4a:	bfa5                	j	4ac2 <_malloc_r+0x2c>
    4b4c:	00350413          	addi	s0,a0,3
    4b50:	9871                	andi	s0,s0,-4
    4b52:	fc8503e3          	beq	a0,s0,4b18 <_malloc_r+0x82>
    4b56:	40a405b3          	sub	a1,s0,a0
    4b5a:	854a                	mv	a0,s2
    4b5c:	2021                	jal	4b64 <_sbrk_r>
    4b5e:	fb351de3          	bne	a0,s3,4b18 <_malloc_r+0x82>
    4b62:	b741                	j	4ae2 <_malloc_r+0x4c>

00004b64 <_sbrk_r>:
    4b64:	1141                	addi	sp,sp,-16
    4b66:	c422                	sw	s0,8(sp)
    4b68:	842a                	mv	s0,a0
    4b6a:	852e                	mv	a0,a1
    4b6c:	20001797          	auipc	a5,0x20001
    4b70:	f607a823          	sw	zero,-144(a5) # 20005adc <errno>
    4b74:	c606                	sw	ra,12(sp)
    4b76:	2e39                	jal	4e94 <_sbrk>
    4b78:	57fd                	li	a5,-1
    4b7a:	00f51963          	bne	a0,a5,4b8c <_sbrk_r+0x28>
    4b7e:	20001797          	auipc	a5,0x20001
    4b82:	f5e78793          	addi	a5,a5,-162 # 20005adc <errno>
    4b86:	439c                	lw	a5,0(a5)
    4b88:	c391                	beqz	a5,4b8c <_sbrk_r+0x28>
    4b8a:	c01c                	sw	a5,0(s0)
    4b8c:	40b2                	lw	ra,12(sp)
    4b8e:	4422                	lw	s0,8(sp)
    4b90:	0141                	addi	sp,sp,16
    4b92:	8082                	ret

00004b94 <_raise_r>:
    4b94:	47fd                	li	a5,31
    4b96:	00b7f663          	bgeu	a5,a1,4ba2 <_raise_r+0xe>
    4b9a:	47d9                	li	a5,22
    4b9c:	c11c                	sw	a5,0(a0)
    4b9e:	557d                	li	a0,-1
    4ba0:	8082                	ret
    4ba2:	417c                	lw	a5,68(a0)
    4ba4:	1101                	addi	sp,sp,-32
    4ba6:	cc22                	sw	s0,24(sp)
    4ba8:	ce06                	sw	ra,28(sp)
    4baa:	862e                	mv	a2,a1
    4bac:	842a                	mv	s0,a0
    4bae:	c791                	beqz	a5,4bba <_raise_r+0x26>
    4bb0:	00259713          	slli	a4,a1,0x2
    4bb4:	97ba                	add	a5,a5,a4
    4bb6:	4398                	lw	a4,0(a5)
    4bb8:	eb19                	bnez	a4,4bce <_raise_r+0x3a>
    4bba:	8522                	mv	a0,s0
    4bbc:	c632                	sw	a2,12(sp)
    4bbe:	289d                	jal	4c34 <_getpid_r>
    4bc0:	85aa                	mv	a1,a0
    4bc2:	8522                	mv	a0,s0
    4bc4:	4462                	lw	s0,24(sp)
    4bc6:	4632                	lw	a2,12(sp)
    4bc8:	40f2                	lw	ra,28(sp)
    4bca:	6105                	addi	sp,sp,32
    4bcc:	a81d                	j	4c02 <_kill_r>
    4bce:	4685                	li	a3,1
    4bd0:	4501                	li	a0,0
    4bd2:	00d70863          	beq	a4,a3,4be2 <_raise_r+0x4e>
    4bd6:	56fd                	li	a3,-1
    4bd8:	00d71963          	bne	a4,a3,4bea <_raise_r+0x56>
    4bdc:	47d9                	li	a5,22
    4bde:	c01c                	sw	a5,0(s0)
    4be0:	4505                	li	a0,1
    4be2:	40f2                	lw	ra,28(sp)
    4be4:	4462                	lw	s0,24(sp)
    4be6:	6105                	addi	sp,sp,32
    4be8:	8082                	ret
    4bea:	852e                	mv	a0,a1
    4bec:	0007a023          	sw	zero,0(a5)
    4bf0:	9702                	jalr	a4
    4bf2:	4501                	li	a0,0
    4bf4:	b7fd                	j	4be2 <_raise_r+0x4e>

00004bf6 <raise>:
    4bf6:	81c18793          	addi	a5,gp,-2020 # 2000011c <_impure_ptr>
    4bfa:	85aa                	mv	a1,a0
    4bfc:	4388                	lw	a0,0(a5)
    4bfe:	f97ff06f          	j	4b94 <_raise_r>

00004c02 <_kill_r>:
    4c02:	1141                	addi	sp,sp,-16
    4c04:	c422                	sw	s0,8(sp)
    4c06:	842a                	mv	s0,a0
    4c08:	852e                	mv	a0,a1
    4c0a:	85b2                	mv	a1,a2
    4c0c:	20001797          	auipc	a5,0x20001
    4c10:	ec07a823          	sw	zero,-304(a5) # 20005adc <errno>
    4c14:	c606                	sw	ra,12(sp)
    4c16:	24b9                	jal	4e64 <_kill>
    4c18:	57fd                	li	a5,-1
    4c1a:	00f51963          	bne	a0,a5,4c2c <_kill_r+0x2a>
    4c1e:	20001797          	auipc	a5,0x20001
    4c22:	ebe78793          	addi	a5,a5,-322 # 20005adc <errno>
    4c26:	439c                	lw	a5,0(a5)
    4c28:	c391                	beqz	a5,4c2c <_kill_r+0x2a>
    4c2a:	c01c                	sw	a5,0(s0)
    4c2c:	40b2                	lw	ra,12(sp)
    4c2e:	4422                	lw	s0,8(sp)
    4c30:	0141                	addi	sp,sp,16
    4c32:	8082                	ret

00004c34 <_getpid_r>:
    4c34:	ac01                	j	4e44 <_getpid>

00004c36 <__sread>:
    4c36:	1141                	addi	sp,sp,-16
    4c38:	c422                	sw	s0,8(sp)
    4c3a:	842e                	mv	s0,a1
    4c3c:	00e59583          	lh	a1,14(a1)
    4c40:	c606                	sw	ra,12(sp)
    4c42:	227d                	jal	4df0 <_read_r>
    4c44:	00054963          	bltz	a0,4c56 <__sread+0x20>
    4c48:	487c                	lw	a5,84(s0)
    4c4a:	97aa                	add	a5,a5,a0
    4c4c:	c87c                	sw	a5,84(s0)
    4c4e:	40b2                	lw	ra,12(sp)
    4c50:	4422                	lw	s0,8(sp)
    4c52:	0141                	addi	sp,sp,16
    4c54:	8082                	ret
    4c56:	00c45783          	lhu	a5,12(s0)
    4c5a:	777d                	lui	a4,0xfffff
    4c5c:	177d                	addi	a4,a4,-1
    4c5e:	8ff9                	and	a5,a5,a4
    4c60:	00f41623          	sh	a5,12(s0)
    4c64:	b7ed                	j	4c4e <__sread+0x18>

00004c66 <__swrite>:
    4c66:	00c5d783          	lhu	a5,12(a1)
    4c6a:	1101                	addi	sp,sp,-32
    4c6c:	cc22                	sw	s0,24(sp)
    4c6e:	ca26                	sw	s1,20(sp)
    4c70:	c84a                	sw	s2,16(sp)
    4c72:	c64e                	sw	s3,12(sp)
    4c74:	ce06                	sw	ra,28(sp)
    4c76:	1007f793          	andi	a5,a5,256
    4c7a:	84aa                	mv	s1,a0
    4c7c:	842e                	mv	s0,a1
    4c7e:	8932                	mv	s2,a2
    4c80:	89b6                	mv	s3,a3
    4c82:	c791                	beqz	a5,4c8e <__swrite+0x28>
    4c84:	00e59583          	lh	a1,14(a1)
    4c88:	4689                	li	a3,2
    4c8a:	4601                	li	a2,0
    4c8c:	2235                	jal	4db8 <_lseek_r>
    4c8e:	00c45783          	lhu	a5,12(s0)
    4c92:	777d                	lui	a4,0xfffff
    4c94:	177d                	addi	a4,a4,-1
    4c96:	8ff9                	and	a5,a5,a4
    4c98:	00f41623          	sh	a5,12(s0)
    4c9c:	00e41583          	lh	a1,14(s0)
    4ca0:	4462                	lw	s0,24(sp)
    4ca2:	40f2                	lw	ra,28(sp)
    4ca4:	86ce                	mv	a3,s3
    4ca6:	864a                	mv	a2,s2
    4ca8:	49b2                	lw	s3,12(sp)
    4caa:	4942                	lw	s2,16(sp)
    4cac:	8526                	mv	a0,s1
    4cae:	44d2                	lw	s1,20(sp)
    4cb0:	6105                	addi	sp,sp,32
    4cb2:	a83d                	j	4cf0 <_write_r>

00004cb4 <__sseek>:
    4cb4:	1141                	addi	sp,sp,-16
    4cb6:	c422                	sw	s0,8(sp)
    4cb8:	842e                	mv	s0,a1
    4cba:	00e59583          	lh	a1,14(a1)
    4cbe:	c606                	sw	ra,12(sp)
    4cc0:	28e5                	jal	4db8 <_lseek_r>
    4cc2:	57fd                	li	a5,-1
    4cc4:	00c45703          	lhu	a4,12(s0)
    4cc8:	00f51b63          	bne	a0,a5,4cde <__sseek+0x2a>
    4ccc:	77fd                	lui	a5,0xfffff
    4cce:	17fd                	addi	a5,a5,-1
    4cd0:	8ff9                	and	a5,a5,a4
    4cd2:	00f41623          	sh	a5,12(s0)
    4cd6:	40b2                	lw	ra,12(sp)
    4cd8:	4422                	lw	s0,8(sp)
    4cda:	0141                	addi	sp,sp,16
    4cdc:	8082                	ret
    4cde:	6785                	lui	a5,0x1
    4ce0:	8fd9                	or	a5,a5,a4
    4ce2:	00f41623          	sh	a5,12(s0)
    4ce6:	c868                	sw	a0,84(s0)
    4ce8:	b7fd                	j	4cd6 <__sseek+0x22>

00004cea <__sclose>:
    4cea:	00e59583          	lh	a1,14(a1)
    4cee:	a825                	j	4d26 <_close_r>

00004cf0 <_write_r>:
    4cf0:	1141                	addi	sp,sp,-16
    4cf2:	c422                	sw	s0,8(sp)
    4cf4:	842a                	mv	s0,a0
    4cf6:	852e                	mv	a0,a1
    4cf8:	85b2                	mv	a1,a2
    4cfa:	8636                	mv	a2,a3
    4cfc:	20001797          	auipc	a5,0x20001
    4d00:	de07a023          	sw	zero,-544(a5) # 20005adc <errno>
    4d04:	c606                	sw	ra,12(sp)
    4d06:	be4fc0ef          	jal	ra,10ea <_write>
    4d0a:	57fd                	li	a5,-1
    4d0c:	00f51963          	bne	a0,a5,4d1e <_write_r+0x2e>
    4d10:	20001797          	auipc	a5,0x20001
    4d14:	dcc78793          	addi	a5,a5,-564 # 20005adc <errno>
    4d18:	439c                	lw	a5,0(a5)
    4d1a:	c391                	beqz	a5,4d1e <_write_r+0x2e>
    4d1c:	c01c                	sw	a5,0(s0)
    4d1e:	40b2                	lw	ra,12(sp)
    4d20:	4422                	lw	s0,8(sp)
    4d22:	0141                	addi	sp,sp,16
    4d24:	8082                	ret

00004d26 <_close_r>:
    4d26:	1141                	addi	sp,sp,-16
    4d28:	c422                	sw	s0,8(sp)
    4d2a:	842a                	mv	s0,a0
    4d2c:	852e                	mv	a0,a1
    4d2e:	20001797          	auipc	a5,0x20001
    4d32:	da07a723          	sw	zero,-594(a5) # 20005adc <errno>
    4d36:	c606                	sw	ra,12(sp)
    4d38:	20f5                	jal	4e24 <_close>
    4d3a:	57fd                	li	a5,-1
    4d3c:	00f51963          	bne	a0,a5,4d4e <_close_r+0x28>
    4d40:	20001797          	auipc	a5,0x20001
    4d44:	d9c78793          	addi	a5,a5,-612 # 20005adc <errno>
    4d48:	439c                	lw	a5,0(a5)
    4d4a:	c391                	beqz	a5,4d4e <_close_r+0x28>
    4d4c:	c01c                	sw	a5,0(s0)
    4d4e:	40b2                	lw	ra,12(sp)
    4d50:	4422                	lw	s0,8(sp)
    4d52:	0141                	addi	sp,sp,16
    4d54:	8082                	ret

00004d56 <_fstat_r>:
    4d56:	1141                	addi	sp,sp,-16
    4d58:	c422                	sw	s0,8(sp)
    4d5a:	842a                	mv	s0,a0
    4d5c:	852e                	mv	a0,a1
    4d5e:	85b2                	mv	a1,a2
    4d60:	20001797          	auipc	a5,0x20001
    4d64:	d607ae23          	sw	zero,-644(a5) # 20005adc <errno>
    4d68:	c606                	sw	ra,12(sp)
    4d6a:	20e9                	jal	4e34 <_fstat>
    4d6c:	57fd                	li	a5,-1
    4d6e:	00f51963          	bne	a0,a5,4d80 <_fstat_r+0x2a>
    4d72:	20001797          	auipc	a5,0x20001
    4d76:	d6a78793          	addi	a5,a5,-662 # 20005adc <errno>
    4d7a:	439c                	lw	a5,0(a5)
    4d7c:	c391                	beqz	a5,4d80 <_fstat_r+0x2a>
    4d7e:	c01c                	sw	a5,0(s0)
    4d80:	40b2                	lw	ra,12(sp)
    4d82:	4422                	lw	s0,8(sp)
    4d84:	0141                	addi	sp,sp,16
    4d86:	8082                	ret

00004d88 <_isatty_r>:
    4d88:	1141                	addi	sp,sp,-16
    4d8a:	c422                	sw	s0,8(sp)
    4d8c:	842a                	mv	s0,a0
    4d8e:	852e                	mv	a0,a1
    4d90:	20001797          	auipc	a5,0x20001
    4d94:	d407a623          	sw	zero,-692(a5) # 20005adc <errno>
    4d98:	c606                	sw	ra,12(sp)
    4d9a:	286d                	jal	4e54 <_isatty>
    4d9c:	57fd                	li	a5,-1
    4d9e:	00f51963          	bne	a0,a5,4db0 <_isatty_r+0x28>
    4da2:	20001797          	auipc	a5,0x20001
    4da6:	d3a78793          	addi	a5,a5,-710 # 20005adc <errno>
    4daa:	439c                	lw	a5,0(a5)
    4dac:	c391                	beqz	a5,4db0 <_isatty_r+0x28>
    4dae:	c01c                	sw	a5,0(s0)
    4db0:	40b2                	lw	ra,12(sp)
    4db2:	4422                	lw	s0,8(sp)
    4db4:	0141                	addi	sp,sp,16
    4db6:	8082                	ret

00004db8 <_lseek_r>:
    4db8:	1141                	addi	sp,sp,-16
    4dba:	c422                	sw	s0,8(sp)
    4dbc:	842a                	mv	s0,a0
    4dbe:	852e                	mv	a0,a1
    4dc0:	85b2                	mv	a1,a2
    4dc2:	8636                	mv	a2,a3
    4dc4:	20001797          	auipc	a5,0x20001
    4dc8:	d007ac23          	sw	zero,-744(a5) # 20005adc <errno>
    4dcc:	c606                	sw	ra,12(sp)
    4dce:	205d                	jal	4e74 <_lseek>
    4dd0:	57fd                	li	a5,-1
    4dd2:	00f51963          	bne	a0,a5,4de4 <_lseek_r+0x2c>
    4dd6:	20001797          	auipc	a5,0x20001
    4dda:	d0678793          	addi	a5,a5,-762 # 20005adc <errno>
    4dde:	439c                	lw	a5,0(a5)
    4de0:	c391                	beqz	a5,4de4 <_lseek_r+0x2c>
    4de2:	c01c                	sw	a5,0(s0)
    4de4:	40b2                	lw	ra,12(sp)
    4de6:	4422                	lw	s0,8(sp)
    4de8:	0141                	addi	sp,sp,16
    4dea:	8082                	ret

00004dec <__malloc_lock>:
    4dec:	8082                	ret

00004dee <__malloc_unlock>:
    4dee:	8082                	ret

00004df0 <_read_r>:
    4df0:	1141                	addi	sp,sp,-16
    4df2:	c422                	sw	s0,8(sp)
    4df4:	842a                	mv	s0,a0
    4df6:	852e                	mv	a0,a1
    4df8:	85b2                	mv	a1,a2
    4dfa:	8636                	mv	a2,a3
    4dfc:	20001797          	auipc	a5,0x20001
    4e00:	ce07a023          	sw	zero,-800(a5) # 20005adc <errno>
    4e04:	c606                	sw	ra,12(sp)
    4e06:	28bd                	jal	4e84 <_read>
    4e08:	57fd                	li	a5,-1
    4e0a:	00f51963          	bne	a0,a5,4e1c <_read_r+0x2c>
    4e0e:	20001797          	auipc	a5,0x20001
    4e12:	cce78793          	addi	a5,a5,-818 # 20005adc <errno>
    4e16:	439c                	lw	a5,0(a5)
    4e18:	c391                	beqz	a5,4e1c <_read_r+0x2c>
    4e1a:	c01c                	sw	a5,0(s0)
    4e1c:	40b2                	lw	ra,12(sp)
    4e1e:	4422                	lw	s0,8(sp)
    4e20:	0141                	addi	sp,sp,16
    4e22:	8082                	ret

00004e24 <_close>:
    4e24:	05800793          	li	a5,88
    4e28:	20001717          	auipc	a4,0x20001
    4e2c:	caf72a23          	sw	a5,-844(a4) # 20005adc <errno>
    4e30:	557d                	li	a0,-1
    4e32:	8082                	ret

00004e34 <_fstat>:
    4e34:	05800793          	li	a5,88
    4e38:	20001717          	auipc	a4,0x20001
    4e3c:	caf72223          	sw	a5,-860(a4) # 20005adc <errno>
    4e40:	557d                	li	a0,-1
    4e42:	8082                	ret

00004e44 <_getpid>:
    4e44:	05800793          	li	a5,88
    4e48:	20001717          	auipc	a4,0x20001
    4e4c:	c8f72a23          	sw	a5,-876(a4) # 20005adc <errno>
    4e50:	557d                	li	a0,-1
    4e52:	8082                	ret

00004e54 <_isatty>:
    4e54:	05800793          	li	a5,88
    4e58:	20001717          	auipc	a4,0x20001
    4e5c:	c8f72223          	sw	a5,-892(a4) # 20005adc <errno>
    4e60:	4501                	li	a0,0
    4e62:	8082                	ret

00004e64 <_kill>:
    4e64:	05800793          	li	a5,88
    4e68:	20001717          	auipc	a4,0x20001
    4e6c:	c6f72a23          	sw	a5,-908(a4) # 20005adc <errno>
    4e70:	557d                	li	a0,-1
    4e72:	8082                	ret

00004e74 <_lseek>:
    4e74:	05800793          	li	a5,88
    4e78:	20001717          	auipc	a4,0x20001
    4e7c:	c6f72223          	sw	a5,-924(a4) # 20005adc <errno>
    4e80:	557d                	li	a0,-1
    4e82:	8082                	ret

00004e84 <_read>:
    4e84:	05800793          	li	a5,88
    4e88:	20001717          	auipc	a4,0x20001
    4e8c:	c4f72a23          	sw	a5,-940(a4) # 20005adc <errno>
    4e90:	557d                	li	a0,-1
    4e92:	8082                	ret

00004e94 <_sbrk>:
    4e94:	85018793          	addi	a5,gp,-1968 # 20000150 <heap_end.1518>
    4e98:	439c                	lw	a5,0(a5)
    4e9a:	c791                	beqz	a5,4ea6 <_sbrk+0x12>
    4e9c:	953e                	add	a0,a0,a5
    4e9e:	84a1a823          	sw	a0,-1968(gp) # 20000150 <heap_end.1518>
    4ea2:	853e                	mv	a0,a5
    4ea4:	8082                	ret
    4ea6:	20001797          	auipc	a5,0x20001
    4eaa:	c3a78793          	addi	a5,a5,-966 # 20005ae0 <_ebss>
    4eae:	953e                	add	a0,a0,a5
    4eb0:	84a1a823          	sw	a0,-1968(gp) # 20000150 <heap_end.1518>
    4eb4:	853e                	mv	a0,a5
    4eb6:	8082                	ret

00004eb8 <_exit>:
    4eb8:	a001                	j	4eb8 <_exit>
    4eba:	0000                	unimp
    4ebc:	2d4d4143          	0x2d4d4143
    4ec0:	5049                	c.li	zero,-14
    4ec2:	45440053          	0x45440053
    4ec6:	4f4d                	li	t5,19
    4ec8:	0000                	unimp
	...

00004ecc <__func__.6292>:
    4ecc:	746d 7639 3330 5f78 6e69 7469 645f 7076     mt9v03x_init_dvp
    4edc:	0000 0000 0030 0000 3a43 552f 6573 7372     ....0...C:/Users
    4eec:	6c2f 7569 442f 7365 746b 706f d62f c4c7     /liu/Desktop/...
    4efc:	d0dc b3a1 b1b5 c8c8 2ffc f9bb a1b4 e9d7     ........./......
    4f0c:	e3c9 f1cf b7cd cad7 cfc1 a8a3 e3c9 f1cf     ................
    4f1c:	b7cd a9a3 cad7 cfc1 3156 312e 342f 442e     ........V1.1/4.D
    4f2c:	6d65 2f6f 694c 7262 7261 6569 2f73 6568     emo/Libraries/he
    4f3c:	6566 5f69 6570 6972 6870 7265 6c61 482f     fei_peripheral/H
    4f4c:	5f46 544d 5639 3330 2e58 0063               F_MT9V03X.c.

00004f58 <tft_ascii>:
	...
    4f68:	0000 0800 0808 0808 0808 0000 0808 0000     ................
    4f78:	4800 2424 0012 0000 0000 0000 0000 0000     .H$$............
    4f88:	0000 4800 4848 247e 2424 247e 2424 0000     ...HHH~$$$~$$$..
    4f98:	0000 3c10 5252 1c12 5030 5250 3c52 1010     ...<RR..0PPRR<..
    4fa8:	0000 2200 1525 0d15 582a 5454 2252 0000     ..."%...*XTTR"..
    4fb8:	0000 0c00 1212 0a12 2576 1929 6e91 0000     ........v%)..n..
    4fc8:	0600 0404 0002 0000 0000 0000 0000 0000     ................
    4fd8:	4000 1020 0810 0808 0808 1008 2010 0040     .@ .......... @.
    4fe8:	0200 0804 1008 1010 1010 0810 0408 0002     ................
    4ff8:	0000 0000 0808 1c6b 6b1c 0808 0000 0000     ......k..k......
    5008:	0000 0000 1000 1010 10fe 1010 0000 0000     ................
	...
    5024:	0406 0204 0000 0000 0000 0000 007e 0000     ............~...
	...
    5044:	0606 0000 0000 2040 2020 1010 0808 0408     ......@   ......
    5054:	0204 0002 0000 1800 4224 4242 4242 4242     ........$BBBBBBB
    5064:	1824 0000 0000 1000 101c 1010 1010 1010     $...............
    5074:	7c10 0000 0000 3c00 4242 4042 1020 0408     .|.....<BBB@ ...
    5084:	7e42 0000 0000 3c00 4242 2040 2018 4240     B~.....<BB@ . @B
    5094:	3c42 0000 0000 2000 3030 2428 2224 20fe     B<..... 00($$". 
    50a4:	f820 0000 0000 7e00 0202 1e02 4022 4240      ......~...."@@B
    50b4:	1c22 0000 0000 1800 0224 3a02 4246 4242     ".......$..:FBBB
    50c4:	3844 0000 0000 7e00 2042 1020 0810 0808     D8.....~B  .....
    50d4:	0808 0000 0000 3c00 4242 2442 2418 4242     .......<BBB$.$BB
    50e4:	3c42 0000 0000 1c00 4222 4242 5c62 4040     B<......"BBBb\@@
    50f4:	1824 0000 0000 0000 0000 1818 0000 0000     $...............
    5104:	1818 0000 0000 0000 0000 0800 0000 0000     ................
    5114:	0800 0808 0000 4000 1020 0408 0402 1008     .......@ .......
    5124:	4020 0000 0000 0000 0000 007e 7e00 0000      @........~..~..
    5134:	0000 0000 0000 0200 0804 2010 2040 0810     ........... @ ..
    5144:	0204 0000 0000 3c00 4242 2046 1010 0010     .......<BBF ....
    5154:	1818 0000 0000 1c00 5a22 5555 5555 3a55     ........"ZUUUUU:
    5164:	3c42 0000 0000 0800 1808 1414 3c24 4222     B<..........$<"B
    5174:	e742 0000 0000 1f00 2222 1e22 4222 4242     B......."""."BBB
    5184:	1f22 0000 0000 7c00 4242 0101 0101 4201     "......|BB.....B
    5194:	1c22 0000 0000 1f00 4222 4242 4242 4242     "......."BBBBBBB
    51a4:	1f22 0000 0000 3f00 1242 1e12 1212 4202     "......?B......B
    51b4:	3f42 0000 0000 3f00 1242 1e12 1212 0202     B?.....?B.......
    51c4:	0702 0000 0000 3c00 2222 0101 7101 2221     .......<""...q!"
    51d4:	1c22 0000 0000 e700 4242 4242 427e 4242     ".......BBBB~BBB
    51e4:	e742 0000 0000 3e00 0808 0808 0808 0808     B......>........
    51f4:	3e08 0000 0000 7c00 1010 1010 1010 1010     .>.....|........
    5204:	1010 0f11 0000 7700 1222 0e0a 120a 2212     .......w"......"
    5214:	7722 0000 0000 0700 0202 0202 0202 0202     "w..............
    5224:	7f42 0000 0000 7700 3636 3636 2a36 2a2a     B......w66666***
    5234:	6b2a 0000 0000 e300 4646 4a4a 5252 6252     *k......FFJJRRRb
    5244:	4762 0000 0000 1c00 4122 4141 4141 4141     bG......"AAAAAAA
    5254:	1c22 0000 0000 3f00 4242 4242 023e 0202     "......?BBBB>...
    5264:	0702 0000 0000 1c00 4122 4141 4141 4d41     ........"AAAAAAM
    5274:	1c32 0060 0000 3f00 4242 3e42 1212 2222     2.`....?BBB>..""
    5284:	c742 0000 0000 7c00 4242 0402 2018 4240     B......|BB... @B
    5294:	3e42 0000 0000 7f00 0849 0808 0808 0808     B>......I.......
    52a4:	1c08 0000 0000 e700 4242 4242 4242 4242     ........BBBBBBBB
    52b4:	3c42 0000 0000 e700 4242 2422 1424 1814     B<......BB"$$...
    52c4:	0808 0000 0000 6b00 2a2a 2a2a 362a 1414     .......k*****6..
    52d4:	1414 0000 0000 e700 2442 1824 1818 2424     ........B$$...$$
    52e4:	e742 0000 0000 7700 2222 1414 0808 0808     B......w""......
    52f4:	1c08 0000 0000 7e00 2021 1010 0408 4204     .......~! .....B
    5304:	3f42 0000 7800 0808 0808 0808 0808 0808     B?...x..........
    5314:	0808 0078 0000 0402 0404 0808 1008 2010     ..x............ 
    5324:	2020 4040 1e00 1010 1010 1010 1010 1010       @@............
    5334:	1010 001e 1800 0024 0000 0000 0000 0000     ......$.........
	...
    5354:	0000 ff00 0600 0008 0000 0000 0000 0000     ................
	...
    536c:	0000 1c00 3022 222c 6c32 0000 0000 0000     ...."0,"2l......
    537c:	0203 1a02 4226 4242 1a26 0000 0000 0000     ....&BBB&.......
    538c:	0000 3800 0244 0202 3844 0000 0000 0000     ...8D...D8......
    539c:	4060 7c40 4242 4242 dc62 0000 0000 0000     `@@|BBBBb.......
    53ac:	0000 3c00 4242 027e 3c42 0000 0000 0000     ...<BB~.B<......
    53bc:	4830 3e08 0808 0808 3e08 0000 0000 0000     0H.>.....>......
    53cc:	0000 7c00 2222 021c 423c 3c42 0000 0000     ...|""..<BB<....
    53dc:	0203 3a02 4246 4242 e742 0000 0000 0c00     ...:FBBBB.......
    53ec:	000c 0e00 0808 0808 3e08 0000 0000 3000     .........>.....0
    53fc:	0030 3800 2020 2020 2020 1e22 0000 0000     0..8      ".....
    540c:	0203 7202 0a12 120e 7722 0000 0000 0800     ...r...."w......
    541c:	080e 0808 0808 0808 3e08 0000 0000 0000     .........>......
    542c:	0000 7f00 9292 9292 b792 0000 0000 0000     ................
    543c:	0000 3b00 4246 4242 e742 0000 0000 0000     ...;FBBBB.......
    544c:	0000 3c00 4242 4242 3c42 0000 0000 0000     ...<BBBBB<......
    545c:	0000 1b00 4226 4242 1a26 0702 0000 0000     ....&BBB&.......
    546c:	0000 5800 4264 4242 5864 e040 0000 0000     ...XdBBBdX@.....
    547c:	0000 7700 044c 0404 1f04 0000 0000 0000     ...wL...........
    548c:	0000 7c00 0242 403c 3e42 0000 0000 0000     ...|B.<@B>......
    549c:	0800 3e08 0808 0808 3048 0000 0000 0000     ...>....H0......
    54ac:	0000 6300 4242 4242 dc62 0000 0000 0000     ...cBBBBb.......
    54bc:	0000 7700 2222 1414 0808 0000 0000 0000     ...w""..........
    54cc:	0000 db00 5291 2a5a 2424 0000 0000 0000     .....RZ*$$......
    54dc:	0000 6e00 1824 1818 7624 0000 0000 0000     ...n$...$v......
    54ec:	0000 e700 2442 1824 0818 0608 0000 0000     ....B$$.........
    54fc:	0000 7e00 1022 0808 7e44 0000 c000 2020     ...~"...D~....  
    550c:	2020 2020 2010 2020 2020 00c0 1010 1010         .     ......
    551c:	1010 1010 1010 1010 1010 1010 0300 0404     ................
    552c:	0404 0404 0408 0404 0404 0003 5a04 0020     .............Z .
	...

00005548 <GPION>:
    5548:	0800 4001 0c00 4001 1000 4001 1400 4001     ...@...@...@...@
    5558:	1800 4001                                   ...@

0000555c <SPIN>:
    555c:	3000 4001 3800 4000 3c00 4000               .0.@.8.@.<.@

00005568 <TIMERN>:
    5568:	2c00 4001 0000 4000 0400 4000 0800 4000     .,.@...@...@...@
    5578:	0c00 4000 3400 4001 4c00 4001 5000 4001     ...@.4.@.L.@.P.@

00005588 <UARTN>:
    5588:	3800 4001 4400 4000 4800 4000 4c00 4000     .8.@.D.@.H.@.L.@
    5598:	5000 4000 1800 4000 1c00 4000 2000 4000     .P.@...@...@. .@
    55a8:	37a2 0000 3658 0000 355e 0000 36d4 0000     .7..X6..^5...6..
    55b8:	355e 0000 3628 0000 34ba 0000 355e 0000     ^5..(6...4..^5..
    55c8:	3632 0000 364a 0000 3780 0000 3786 0000     26..J6...7...7..

000055d8 <MyCfgDescrHD>:
    55d8:	0209 0043 0102 a000 0932 0004 0100 0202     ..C.....2.......
    55e8:	0001 2405 1000 0501 0124 0000 2404 0202     ...$....$....$..
    55f8:	2405 0006 0701 8105 4003 ff00 0409 0001     .$.......@......
    5608:	0a02 0000 0700 0205 4002 0000 0507 0282     .........@......
    5618:	0040 0000                                   @...

0000561c <MyDevDescrHD>:
    561c:	0112 0200 0002 0800 1a86 5722 0100 0201     .........."W....
    562c:	0103 0000                                   ....

00005630 <MyManuInfoHD>:
    5630:	030e 0077 0063 0068 002e 0063 006e 0000     ..w.c.h...c.n...

00005640 <MyProdInfoHD>:
    5640:	030c 0043 0048 0033 0030 0037               ..C.H.3.0.7.

0000564c <MyReportDescHD>:
    564c:	0314 0032 0030 0031 0037 002d 0032 002d     ..2.0.1.7.-.2.-.
    565c:	0032 0035                                   2.5.

00005660 <MySerNumInfoHD>:
    5660:	0316 0030 0031 0032 0033 0034 0035 0036     ..0.1.2.3.4.5.6.
    5670:	0037 0038 0039 0000                         7.8.9...

00005678 <MyUSBQUADescHD>:
    5678:	060a 0200 00ff 40ff 0001 0000 420a 7561     .......@.....Bau
    5688:	2064 6152 6574 3d20 2520 0064 640a 7461     d Rate = %d..dat
    5698:	4261 7469 3d20 2520 0064 0000 730a 6f74     aBit = %d....sto
    56a8:	4270 7469 3d20 2520 0064 0000 700a 7261     pBit = %d....par
    56b8:	7469 5479 7079 2065 203d 6425 0000 0000     ityType = %d....
    56c8:	202c 7566 636e 6974 6e6f 203a 0000 0000     , function: ....
    56d8:	7361 6573 7472 6f69 206e 2522 2273 6620     assertion "%s" f
    56e8:	6961 656c 3a64 6620 6c69 2065 2522 2273     ailed: file "%s"
    56f8:	202c 696c 656e 2520 2564 2573 0a73 0000     , line %d%s%s...
    5708:	2d23 2b30 0020 0000 6c68 004c 6665 4567     #-0+ ...hlL.efgE
    5718:	4746 0000 3130 3332 3534 3736 3938 4241     FG..0123456789AB
    5728:	4443 4645 0000 0000 3130 3332 3534 3736     CDEF....01234567
    5738:	3938 6261 6463 6665 0000 0000               89abcdef....

00005744 <__sf_fake_stderr>:
	...

00005764 <__sf_fake_stdin>:
	...

00005784 <__sf_fake_stdout>:
	...
